   1              	 .syntax unified
   2              	 .cpu cortex-m4
   3              	 .eabi_attribute 27,3
   4              	 .fpu fpv4-sp-d16
   5              	 .eabi_attribute 20,1
   6              	 .eabi_attribute 21,1
   7              	 .eabi_attribute 23,3
   8              	 .eabi_attribute 24,1
   9              	 .eabi_attribute 25,1
  10              	 .eabi_attribute 26,1
  11              	 .eabi_attribute 30,6
  12              	 .eabi_attribute 34,1
  13              	 .eabi_attribute 18,4
  14              	 .thumb
  15              	 .file "main.c"
  16              	 .text
  17              	.Ltext0:
  18              	 .cfi_sections .debug_frame
  19              	 .section .text.XMC_GPIO_ToggleOutput,"ax",%progbits
  20              	 .align 2
  21              	 .thumb
  22              	 .thumb_func
  24              	XMC_GPIO_ToggleOutput:
  25              	.LFB137:
  26              	 .file 1 "D:/Infineon/Tools/DAVE IDE/4.5.0.202105191637/eclipse/workspace/XMC4300-app/Libraries/XMCLib/inc/xmc_gpio.h"
   1:D:/Infineon/Tools/DAVE IDE/4.5.0.202105191637/eclipse/workspace/XMC4300-app/Libraries/XMCLib/inc\xmc_gpio.h **** /**
   2:D:/Infineon/Tools/DAVE IDE/4.5.0.202105191637/eclipse/workspace/XMC4300-app/Libraries/XMCLib/inc\xmc_gpio.h ****  * @file xmc_gpio.h
   3:D:/Infineon/Tools/DAVE IDE/4.5.0.202105191637/eclipse/workspace/XMC4300-app/Libraries/XMCLib/inc\xmc_gpio.h ****  * @date 2015-06-20
   4:D:/Infineon/Tools/DAVE IDE/4.5.0.202105191637/eclipse/workspace/XMC4300-app/Libraries/XMCLib/inc\xmc_gpio.h ****  *
   5:D:/Infineon/Tools/DAVE IDE/4.5.0.202105191637/eclipse/workspace/XMC4300-app/Libraries/XMCLib/inc\xmc_gpio.h ****  * @cond
   6:D:/Infineon/Tools/DAVE IDE/4.5.0.202105191637/eclipse/workspace/XMC4300-app/Libraries/XMCLib/inc\xmc_gpio.h ****  *****************************************************************************
   7:D:/Infineon/Tools/DAVE IDE/4.5.0.202105191637/eclipse/workspace/XMC4300-app/Libraries/XMCLib/inc\xmc_gpio.h ****  * XMClib v2.2.0 - XMC Peripheral Driver Library
   8:D:/Infineon/Tools/DAVE IDE/4.5.0.202105191637/eclipse/workspace/XMC4300-app/Libraries/XMCLib/inc\xmc_gpio.h ****  *
   9:D:/Infineon/Tools/DAVE IDE/4.5.0.202105191637/eclipse/workspace/XMC4300-app/Libraries/XMCLib/inc\xmc_gpio.h ****  * Copyright (c) 2015-2020, Infineon Technologies AG
  10:D:/Infineon/Tools/DAVE IDE/4.5.0.202105191637/eclipse/workspace/XMC4300-app/Libraries/XMCLib/inc\xmc_gpio.h ****  * All rights reserved.
  11:D:/Infineon/Tools/DAVE IDE/4.5.0.202105191637/eclipse/workspace/XMC4300-app/Libraries/XMCLib/inc\xmc_gpio.h ****  *
  12:D:/Infineon/Tools/DAVE IDE/4.5.0.202105191637/eclipse/workspace/XMC4300-app/Libraries/XMCLib/inc\xmc_gpio.h ****  * Boost Software License - Version 1.0 - August 17th, 2003
  13:D:/Infineon/Tools/DAVE IDE/4.5.0.202105191637/eclipse/workspace/XMC4300-app/Libraries/XMCLib/inc\xmc_gpio.h ****  *
  14:D:/Infineon/Tools/DAVE IDE/4.5.0.202105191637/eclipse/workspace/XMC4300-app/Libraries/XMCLib/inc\xmc_gpio.h ****  * Permission is hereby granted, free of charge, to any person or organization
  15:D:/Infineon/Tools/DAVE IDE/4.5.0.202105191637/eclipse/workspace/XMC4300-app/Libraries/XMCLib/inc\xmc_gpio.h ****  * obtaining a copy of the software and accompanying documentation covered by
  16:D:/Infineon/Tools/DAVE IDE/4.5.0.202105191637/eclipse/workspace/XMC4300-app/Libraries/XMCLib/inc\xmc_gpio.h ****  * this license (the "Software") to use, reproduce, display, distribute,
  17:D:/Infineon/Tools/DAVE IDE/4.5.0.202105191637/eclipse/workspace/XMC4300-app/Libraries/XMCLib/inc\xmc_gpio.h ****  * execute, and transmit the Software, and to prepare derivative works of the
  18:D:/Infineon/Tools/DAVE IDE/4.5.0.202105191637/eclipse/workspace/XMC4300-app/Libraries/XMCLib/inc\xmc_gpio.h ****  * Software, and to permit third-parties to whom the Software is furnished to
  19:D:/Infineon/Tools/DAVE IDE/4.5.0.202105191637/eclipse/workspace/XMC4300-app/Libraries/XMCLib/inc\xmc_gpio.h ****  * do so, all subject to the following:
  20:D:/Infineon/Tools/DAVE IDE/4.5.0.202105191637/eclipse/workspace/XMC4300-app/Libraries/XMCLib/inc\xmc_gpio.h ****  *
  21:D:/Infineon/Tools/DAVE IDE/4.5.0.202105191637/eclipse/workspace/XMC4300-app/Libraries/XMCLib/inc\xmc_gpio.h ****  * The copyright notices in the Software and this entire statement, including
  22:D:/Infineon/Tools/DAVE IDE/4.5.0.202105191637/eclipse/workspace/XMC4300-app/Libraries/XMCLib/inc\xmc_gpio.h ****  * the above license grant, this restriction and the following disclaimer,
  23:D:/Infineon/Tools/DAVE IDE/4.5.0.202105191637/eclipse/workspace/XMC4300-app/Libraries/XMCLib/inc\xmc_gpio.h ****  * must be included in all copies of the Software, in whole or in part, and
  24:D:/Infineon/Tools/DAVE IDE/4.5.0.202105191637/eclipse/workspace/XMC4300-app/Libraries/XMCLib/inc\xmc_gpio.h ****  * all derivative works of the Software, unless such copies or derivative
  25:D:/Infineon/Tools/DAVE IDE/4.5.0.202105191637/eclipse/workspace/XMC4300-app/Libraries/XMCLib/inc\xmc_gpio.h ****  * works are solely in the form of machine-executable object code generated by
  26:D:/Infineon/Tools/DAVE IDE/4.5.0.202105191637/eclipse/workspace/XMC4300-app/Libraries/XMCLib/inc\xmc_gpio.h ****  * a source language processor.
  27:D:/Infineon/Tools/DAVE IDE/4.5.0.202105191637/eclipse/workspace/XMC4300-app/Libraries/XMCLib/inc\xmc_gpio.h ****  *
  28:D:/Infineon/Tools/DAVE IDE/4.5.0.202105191637/eclipse/workspace/XMC4300-app/Libraries/XMCLib/inc\xmc_gpio.h ****  * THE SOFTWARE IS PROVIDED "AS IS", WITHOUT WARRANTY OF ANY KIND, EXPRESS OR
  29:D:/Infineon/Tools/DAVE IDE/4.5.0.202105191637/eclipse/workspace/XMC4300-app/Libraries/XMCLib/inc\xmc_gpio.h ****  * IMPLIED, INCLUDING BUT NOT LIMITED TO THE WARRANTIES OF MERCHANTABILITY,
  30:D:/Infineon/Tools/DAVE IDE/4.5.0.202105191637/eclipse/workspace/XMC4300-app/Libraries/XMCLib/inc\xmc_gpio.h ****  * FITNESS FOR A PARTICULAR PURPOSE, TITLE AND NON-INFRINGEMENT. IN NO EVENT
  31:D:/Infineon/Tools/DAVE IDE/4.5.0.202105191637/eclipse/workspace/XMC4300-app/Libraries/XMCLib/inc\xmc_gpio.h ****  * SHALL THE COPYRIGHT HOLDERS OR ANYONE DISTRIBUTING THE SOFTWARE BE LIABLE
  32:D:/Infineon/Tools/DAVE IDE/4.5.0.202105191637/eclipse/workspace/XMC4300-app/Libraries/XMCLib/inc\xmc_gpio.h ****  * FOR ANY DAMAGES OR OTHER LIABILITY, WHETHER IN CONTRACT, TORT OR OTHERWISE,
  33:D:/Infineon/Tools/DAVE IDE/4.5.0.202105191637/eclipse/workspace/XMC4300-app/Libraries/XMCLib/inc\xmc_gpio.h ****  * ARISING FROM, OUT OF OR IN CONNECTION WITH THE SOFTWARE OR THE USE OR OTHER
  34:D:/Infineon/Tools/DAVE IDE/4.5.0.202105191637/eclipse/workspace/XMC4300-app/Libraries/XMCLib/inc\xmc_gpio.h ****  * DEALINGS IN THE SOFTWARE.
  35:D:/Infineon/Tools/DAVE IDE/4.5.0.202105191637/eclipse/workspace/XMC4300-app/Libraries/XMCLib/inc\xmc_gpio.h ****  *
  36:D:/Infineon/Tools/DAVE IDE/4.5.0.202105191637/eclipse/workspace/XMC4300-app/Libraries/XMCLib/inc\xmc_gpio.h ****  * To improve the quality of the software, users are encouraged to share
  37:D:/Infineon/Tools/DAVE IDE/4.5.0.202105191637/eclipse/workspace/XMC4300-app/Libraries/XMCLib/inc\xmc_gpio.h ****  * modifications, enhancements or bug fixes with Infineon Technologies AG
  38:D:/Infineon/Tools/DAVE IDE/4.5.0.202105191637/eclipse/workspace/XMC4300-app/Libraries/XMCLib/inc\xmc_gpio.h ****  * at XMCSupport@infineon.com.
  39:D:/Infineon/Tools/DAVE IDE/4.5.0.202105191637/eclipse/workspace/XMC4300-app/Libraries/XMCLib/inc\xmc_gpio.h ****  *****************************************************************************
  40:D:/Infineon/Tools/DAVE IDE/4.5.0.202105191637/eclipse/workspace/XMC4300-app/Libraries/XMCLib/inc\xmc_gpio.h ****  *
  41:D:/Infineon/Tools/DAVE IDE/4.5.0.202105191637/eclipse/workspace/XMC4300-app/Libraries/XMCLib/inc\xmc_gpio.h ****  * Change History
  42:D:/Infineon/Tools/DAVE IDE/4.5.0.202105191637/eclipse/workspace/XMC4300-app/Libraries/XMCLib/inc\xmc_gpio.h ****  * --------------
  43:D:/Infineon/Tools/DAVE IDE/4.5.0.202105191637/eclipse/workspace/XMC4300-app/Libraries/XMCLib/inc\xmc_gpio.h ****  *
  44:D:/Infineon/Tools/DAVE IDE/4.5.0.202105191637/eclipse/workspace/XMC4300-app/Libraries/XMCLib/inc\xmc_gpio.h ****  * 2015-02-20:
  45:D:/Infineon/Tools/DAVE IDE/4.5.0.202105191637/eclipse/workspace/XMC4300-app/Libraries/XMCLib/inc\xmc_gpio.h ****  *     - Initial draft<br>
  46:D:/Infineon/Tools/DAVE IDE/4.5.0.202105191637/eclipse/workspace/XMC4300-app/Libraries/XMCLib/inc\xmc_gpio.h ****  *     - Documentation improved <br>
  47:D:/Infineon/Tools/DAVE IDE/4.5.0.202105191637/eclipse/workspace/XMC4300-app/Libraries/XMCLib/inc\xmc_gpio.h ****  *
  48:D:/Infineon/Tools/DAVE IDE/4.5.0.202105191637/eclipse/workspace/XMC4300-app/Libraries/XMCLib/inc\xmc_gpio.h ****  * 2015-06-20:
  49:D:/Infineon/Tools/DAVE IDE/4.5.0.202105191637/eclipse/workspace/XMC4300-app/Libraries/XMCLib/inc\xmc_gpio.h ****  *     - Removed version macros and declaration of GetDriverVersion API
  50:D:/Infineon/Tools/DAVE IDE/4.5.0.202105191637/eclipse/workspace/XMC4300-app/Libraries/XMCLib/inc\xmc_gpio.h ****  *
  51:D:/Infineon/Tools/DAVE IDE/4.5.0.202105191637/eclipse/workspace/XMC4300-app/Libraries/XMCLib/inc\xmc_gpio.h ****  * @endcond
  52:D:/Infineon/Tools/DAVE IDE/4.5.0.202105191637/eclipse/workspace/XMC4300-app/Libraries/XMCLib/inc\xmc_gpio.h ****  *
  53:D:/Infineon/Tools/DAVE IDE/4.5.0.202105191637/eclipse/workspace/XMC4300-app/Libraries/XMCLib/inc\xmc_gpio.h ****  */
  54:D:/Infineon/Tools/DAVE IDE/4.5.0.202105191637/eclipse/workspace/XMC4300-app/Libraries/XMCLib/inc\xmc_gpio.h **** 
  55:D:/Infineon/Tools/DAVE IDE/4.5.0.202105191637/eclipse/workspace/XMC4300-app/Libraries/XMCLib/inc\xmc_gpio.h **** #ifndef XMC_GPIO_H
  56:D:/Infineon/Tools/DAVE IDE/4.5.0.202105191637/eclipse/workspace/XMC4300-app/Libraries/XMCLib/inc\xmc_gpio.h **** #define XMC_GPIO_H
  57:D:/Infineon/Tools/DAVE IDE/4.5.0.202105191637/eclipse/workspace/XMC4300-app/Libraries/XMCLib/inc\xmc_gpio.h **** 
  58:D:/Infineon/Tools/DAVE IDE/4.5.0.202105191637/eclipse/workspace/XMC4300-app/Libraries/XMCLib/inc\xmc_gpio.h **** /**************************************************************************************************
  59:D:/Infineon/Tools/DAVE IDE/4.5.0.202105191637/eclipse/workspace/XMC4300-app/Libraries/XMCLib/inc\xmc_gpio.h ****  * HEADER FILES
  60:D:/Infineon/Tools/DAVE IDE/4.5.0.202105191637/eclipse/workspace/XMC4300-app/Libraries/XMCLib/inc\xmc_gpio.h ****  **************************************************************************************************
  61:D:/Infineon/Tools/DAVE IDE/4.5.0.202105191637/eclipse/workspace/XMC4300-app/Libraries/XMCLib/inc\xmc_gpio.h **** 
  62:D:/Infineon/Tools/DAVE IDE/4.5.0.202105191637/eclipse/workspace/XMC4300-app/Libraries/XMCLib/inc\xmc_gpio.h **** #include "xmc_common.h"
  63:D:/Infineon/Tools/DAVE IDE/4.5.0.202105191637/eclipse/workspace/XMC4300-app/Libraries/XMCLib/inc\xmc_gpio.h **** 
  64:D:/Infineon/Tools/DAVE IDE/4.5.0.202105191637/eclipse/workspace/XMC4300-app/Libraries/XMCLib/inc\xmc_gpio.h **** /**
  65:D:/Infineon/Tools/DAVE IDE/4.5.0.202105191637/eclipse/workspace/XMC4300-app/Libraries/XMCLib/inc\xmc_gpio.h ****  * @addtogroup XMClib XMC Peripheral Library
  66:D:/Infineon/Tools/DAVE IDE/4.5.0.202105191637/eclipse/workspace/XMC4300-app/Libraries/XMCLib/inc\xmc_gpio.h ****  * @{
  67:D:/Infineon/Tools/DAVE IDE/4.5.0.202105191637/eclipse/workspace/XMC4300-app/Libraries/XMCLib/inc\xmc_gpio.h ****  */
  68:D:/Infineon/Tools/DAVE IDE/4.5.0.202105191637/eclipse/workspace/XMC4300-app/Libraries/XMCLib/inc\xmc_gpio.h **** 
  69:D:/Infineon/Tools/DAVE IDE/4.5.0.202105191637/eclipse/workspace/XMC4300-app/Libraries/XMCLib/inc\xmc_gpio.h **** /**
  70:D:/Infineon/Tools/DAVE IDE/4.5.0.202105191637/eclipse/workspace/XMC4300-app/Libraries/XMCLib/inc\xmc_gpio.h ****  * @addtogroup GPIO
  71:D:/Infineon/Tools/DAVE IDE/4.5.0.202105191637/eclipse/workspace/XMC4300-app/Libraries/XMCLib/inc\xmc_gpio.h ****  * @brief General Purpose Input Output (GPIO) driver for the XMC microcontroller family.
  72:D:/Infineon/Tools/DAVE IDE/4.5.0.202105191637/eclipse/workspace/XMC4300-app/Libraries/XMCLib/inc\xmc_gpio.h ****  *
  73:D:/Infineon/Tools/DAVE IDE/4.5.0.202105191637/eclipse/workspace/XMC4300-app/Libraries/XMCLib/inc\xmc_gpio.h ****  * GPIO driver provide a generic and very flexible software interface for all standard digital I/O 
  74:D:/Infineon/Tools/DAVE IDE/4.5.0.202105191637/eclipse/workspace/XMC4300-app/Libraries/XMCLib/inc\xmc_gpio.h ****  * Each port slice has individual interfaces for the operation as General Purpose I/O and it furthe
  75:D:/Infineon/Tools/DAVE IDE/4.5.0.202105191637/eclipse/workspace/XMC4300-app/Libraries/XMCLib/inc\xmc_gpio.h ****  * connectivity to the on-chip periphery and the control for the pad characteristics.
  76:D:/Infineon/Tools/DAVE IDE/4.5.0.202105191637/eclipse/workspace/XMC4300-app/Libraries/XMCLib/inc\xmc_gpio.h ****  *
  77:D:/Infineon/Tools/DAVE IDE/4.5.0.202105191637/eclipse/workspace/XMC4300-app/Libraries/XMCLib/inc\xmc_gpio.h ****  * The driver is divided into Input and Output mode.
  78:D:/Infineon/Tools/DAVE IDE/4.5.0.202105191637/eclipse/workspace/XMC4300-app/Libraries/XMCLib/inc\xmc_gpio.h ****  *
  79:D:/Infineon/Tools/DAVE IDE/4.5.0.202105191637/eclipse/workspace/XMC4300-app/Libraries/XMCLib/inc\xmc_gpio.h ****  * Input mode features:
  80:D:/Infineon/Tools/DAVE IDE/4.5.0.202105191637/eclipse/workspace/XMC4300-app/Libraries/XMCLib/inc\xmc_gpio.h ****  * -# Configuration structure XMC_GPIO_CONFIG_t and initialization function XMC_GPIO_Init()
  81:D:/Infineon/Tools/DAVE IDE/4.5.0.202105191637/eclipse/workspace/XMC4300-app/Libraries/XMCLib/inc\xmc_gpio.h ****  * -# Allows the selection of weak pull-up or pull-down device. Configuration structure XMC_GPIO_MO
  82:D:/Infineon/Tools/DAVE IDE/4.5.0.202105191637/eclipse/workspace/XMC4300-app/Libraries/XMCLib/inc\xmc_gpio.h ****  * \if XMC1
  83:D:/Infineon/Tools/DAVE IDE/4.5.0.202105191637/eclipse/workspace/XMC4300-app/Libraries/XMCLib/inc\xmc_gpio.h ****  * -# Allows the selection of input hysteresis. XMC_GPIO_SetInputHysteresis()
  84:D:/Infineon/Tools/DAVE IDE/4.5.0.202105191637/eclipse/workspace/XMC4300-app/Libraries/XMCLib/inc\xmc_gpio.h ****  * \endif
  85:D:/Infineon/Tools/DAVE IDE/4.5.0.202105191637/eclipse/workspace/XMC4300-app/Libraries/XMCLib/inc\xmc_gpio.h ****  *
  86:D:/Infineon/Tools/DAVE IDE/4.5.0.202105191637/eclipse/workspace/XMC4300-app/Libraries/XMCLib/inc\xmc_gpio.h ****  *
  87:D:/Infineon/Tools/DAVE IDE/4.5.0.202105191637/eclipse/workspace/XMC4300-app/Libraries/XMCLib/inc\xmc_gpio.h ****  * Output mode features:
  88:D:/Infineon/Tools/DAVE IDE/4.5.0.202105191637/eclipse/workspace/XMC4300-app/Libraries/XMCLib/inc\xmc_gpio.h ****  * -# Allows the selection of push pull/open drain and Alternate output. Configuration structure XM
  89:D:/Infineon/Tools/DAVE IDE/4.5.0.202105191637/eclipse/workspace/XMC4300-app/Libraries/XMCLib/inc\xmc_gpio.h ****  * \if XMC4
  90:D:/Infineon/Tools/DAVE IDE/4.5.0.202105191637/eclipse/workspace/XMC4300-app/Libraries/XMCLib/inc\xmc_gpio.h ****  * -# Allows the selection of pad driver strength. Configuration structure XMC_GPIO_OUTPUT_STRENGTH
  91:D:/Infineon/Tools/DAVE IDE/4.5.0.202105191637/eclipse/workspace/XMC4300-app/Libraries/XMCLib/inc\xmc_gpio.h ****  * \endif
  92:D:/Infineon/Tools/DAVE IDE/4.5.0.202105191637/eclipse/workspace/XMC4300-app/Libraries/XMCLib/inc\xmc_gpio.h ****  *
  93:D:/Infineon/Tools/DAVE IDE/4.5.0.202105191637/eclipse/workspace/XMC4300-app/Libraries/XMCLib/inc\xmc_gpio.h ****  * -# Allows the selection of initial output level. Configuration structure XMC_GPIO_OUTPUT_LEVEL_t
  94:D:/Infineon/Tools/DAVE IDE/4.5.0.202105191637/eclipse/workspace/XMC4300-app/Libraries/XMCLib/inc\xmc_gpio.h ****  *
  95:D:/Infineon/Tools/DAVE IDE/4.5.0.202105191637/eclipse/workspace/XMC4300-app/Libraries/XMCLib/inc\xmc_gpio.h ****  *@{
  96:D:/Infineon/Tools/DAVE IDE/4.5.0.202105191637/eclipse/workspace/XMC4300-app/Libraries/XMCLib/inc\xmc_gpio.h ****  */
  97:D:/Infineon/Tools/DAVE IDE/4.5.0.202105191637/eclipse/workspace/XMC4300-app/Libraries/XMCLib/inc\xmc_gpio.h **** 
  98:D:/Infineon/Tools/DAVE IDE/4.5.0.202105191637/eclipse/workspace/XMC4300-app/Libraries/XMCLib/inc\xmc_gpio.h **** /**************************************************************************************************
  99:D:/Infineon/Tools/DAVE IDE/4.5.0.202105191637/eclipse/workspace/XMC4300-app/Libraries/XMCLib/inc\xmc_gpio.h ****  * MACROS
 100:D:/Infineon/Tools/DAVE IDE/4.5.0.202105191637/eclipse/workspace/XMC4300-app/Libraries/XMCLib/inc\xmc_gpio.h ****  **************************************************************************************************
 101:D:/Infineon/Tools/DAVE IDE/4.5.0.202105191637/eclipse/workspace/XMC4300-app/Libraries/XMCLib/inc\xmc_gpio.h **** 
 102:D:/Infineon/Tools/DAVE IDE/4.5.0.202105191637/eclipse/workspace/XMC4300-app/Libraries/XMCLib/inc\xmc_gpio.h **** #define PORT_IOCR_PC_Pos PORT0_IOCR0_PC0_Pos
 103:D:/Infineon/Tools/DAVE IDE/4.5.0.202105191637/eclipse/workspace/XMC4300-app/Libraries/XMCLib/inc\xmc_gpio.h **** #define PORT_IOCR_PC_Msk PORT0_IOCR0_PC0_Msk
 104:D:/Infineon/Tools/DAVE IDE/4.5.0.202105191637/eclipse/workspace/XMC4300-app/Libraries/XMCLib/inc\xmc_gpio.h **** 
 105:D:/Infineon/Tools/DAVE IDE/4.5.0.202105191637/eclipse/workspace/XMC4300-app/Libraries/XMCLib/inc\xmc_gpio.h **** #define PORT_IOCR_PC_Size 				(8U)
 106:D:/Infineon/Tools/DAVE IDE/4.5.0.202105191637/eclipse/workspace/XMC4300-app/Libraries/XMCLib/inc\xmc_gpio.h **** 
 107:D:/Infineon/Tools/DAVE IDE/4.5.0.202105191637/eclipse/workspace/XMC4300-app/Libraries/XMCLib/inc\xmc_gpio.h **** 
 108:D:/Infineon/Tools/DAVE IDE/4.5.0.202105191637/eclipse/workspace/XMC4300-app/Libraries/XMCLib/inc\xmc_gpio.h **** #define XMC_GPIO_CHECK_OUTPUT_LEVEL(level) ((level == XMC_GPIO_OUTPUT_LEVEL_LOW) || \
 109:D:/Infineon/Tools/DAVE IDE/4.5.0.202105191637/eclipse/workspace/XMC4300-app/Libraries/XMCLib/inc\xmc_gpio.h ****                                             (level == XMC_GPIO_OUTPUT_LEVEL_HIGH))
 110:D:/Infineon/Tools/DAVE IDE/4.5.0.202105191637/eclipse/workspace/XMC4300-app/Libraries/XMCLib/inc\xmc_gpio.h **** 
 111:D:/Infineon/Tools/DAVE IDE/4.5.0.202105191637/eclipse/workspace/XMC4300-app/Libraries/XMCLib/inc\xmc_gpio.h **** #define XMC_GPIO_CHECK_HWCTRL(hwctrl) ((hwctrl == XMC_GPIO_HWCTRL_DISABLED) || \
 112:D:/Infineon/Tools/DAVE IDE/4.5.0.202105191637/eclipse/workspace/XMC4300-app/Libraries/XMCLib/inc\xmc_gpio.h ****                                        (hwctrl == XMC_GPIO_HWCTRL_PERIPHERAL1) || \
 113:D:/Infineon/Tools/DAVE IDE/4.5.0.202105191637/eclipse/workspace/XMC4300-app/Libraries/XMCLib/inc\xmc_gpio.h ****                                        (hwctrl == XMC_GPIO_HWCTRL_PERIPHERAL2))
 114:D:/Infineon/Tools/DAVE IDE/4.5.0.202105191637/eclipse/workspace/XMC4300-app/Libraries/XMCLib/inc\xmc_gpio.h **** 
 115:D:/Infineon/Tools/DAVE IDE/4.5.0.202105191637/eclipse/workspace/XMC4300-app/Libraries/XMCLib/inc\xmc_gpio.h **** /**************************************************************************************************
 116:D:/Infineon/Tools/DAVE IDE/4.5.0.202105191637/eclipse/workspace/XMC4300-app/Libraries/XMCLib/inc\xmc_gpio.h ****  * ENUMS
 117:D:/Infineon/Tools/DAVE IDE/4.5.0.202105191637/eclipse/workspace/XMC4300-app/Libraries/XMCLib/inc\xmc_gpio.h ****  **************************************************************************************************
 118:D:/Infineon/Tools/DAVE IDE/4.5.0.202105191637/eclipse/workspace/XMC4300-app/Libraries/XMCLib/inc\xmc_gpio.h **** 
 119:D:/Infineon/Tools/DAVE IDE/4.5.0.202105191637/eclipse/workspace/XMC4300-app/Libraries/XMCLib/inc\xmc_gpio.h **** 
 120:D:/Infineon/Tools/DAVE IDE/4.5.0.202105191637/eclipse/workspace/XMC4300-app/Libraries/XMCLib/inc\xmc_gpio.h **** /**
 121:D:/Infineon/Tools/DAVE IDE/4.5.0.202105191637/eclipse/workspace/XMC4300-app/Libraries/XMCLib/inc\xmc_gpio.h ****  * Defines output level of a pin. Use type \a XMC_GPIO_OUTPUT_LEVEL_t for this enum.
 122:D:/Infineon/Tools/DAVE IDE/4.5.0.202105191637/eclipse/workspace/XMC4300-app/Libraries/XMCLib/inc\xmc_gpio.h ****  */
 123:D:/Infineon/Tools/DAVE IDE/4.5.0.202105191637/eclipse/workspace/XMC4300-app/Libraries/XMCLib/inc\xmc_gpio.h **** typedef enum XMC_GPIO_OUTPUT_LEVEL
 124:D:/Infineon/Tools/DAVE IDE/4.5.0.202105191637/eclipse/workspace/XMC4300-app/Libraries/XMCLib/inc\xmc_gpio.h **** {
 125:D:/Infineon/Tools/DAVE IDE/4.5.0.202105191637/eclipse/workspace/XMC4300-app/Libraries/XMCLib/inc\xmc_gpio.h ****   XMC_GPIO_OUTPUT_LEVEL_LOW  = 0x10000U, /**<  Reset bit */
 126:D:/Infineon/Tools/DAVE IDE/4.5.0.202105191637/eclipse/workspace/XMC4300-app/Libraries/XMCLib/inc\xmc_gpio.h ****   XMC_GPIO_OUTPUT_LEVEL_HIGH = 0x1U, 	/**< Set bit  */
 127:D:/Infineon/Tools/DAVE IDE/4.5.0.202105191637/eclipse/workspace/XMC4300-app/Libraries/XMCLib/inc\xmc_gpio.h **** } XMC_GPIO_OUTPUT_LEVEL_t;
 128:D:/Infineon/Tools/DAVE IDE/4.5.0.202105191637/eclipse/workspace/XMC4300-app/Libraries/XMCLib/inc\xmc_gpio.h **** 
 129:D:/Infineon/Tools/DAVE IDE/4.5.0.202105191637/eclipse/workspace/XMC4300-app/Libraries/XMCLib/inc\xmc_gpio.h **** /**
 130:D:/Infineon/Tools/DAVE IDE/4.5.0.202105191637/eclipse/workspace/XMC4300-app/Libraries/XMCLib/inc\xmc_gpio.h ****  * Defines direct hardware control characteristics of the pin . Use type \a XMC_GPIO_HWCTRL_t for t
 131:D:/Infineon/Tools/DAVE IDE/4.5.0.202105191637/eclipse/workspace/XMC4300-app/Libraries/XMCLib/inc\xmc_gpio.h ****  */
 132:D:/Infineon/Tools/DAVE IDE/4.5.0.202105191637/eclipse/workspace/XMC4300-app/Libraries/XMCLib/inc\xmc_gpio.h **** typedef enum XMC_GPIO_HWCTRL
 133:D:/Infineon/Tools/DAVE IDE/4.5.0.202105191637/eclipse/workspace/XMC4300-app/Libraries/XMCLib/inc\xmc_gpio.h **** {
 134:D:/Infineon/Tools/DAVE IDE/4.5.0.202105191637/eclipse/workspace/XMC4300-app/Libraries/XMCLib/inc\xmc_gpio.h ****   XMC_GPIO_HWCTRL_DISABLED     = 0x0U, /**<  Software control only */
 135:D:/Infineon/Tools/DAVE IDE/4.5.0.202105191637/eclipse/workspace/XMC4300-app/Libraries/XMCLib/inc\xmc_gpio.h ****   XMC_GPIO_HWCTRL_PERIPHERAL1  = 0x1U, /**<  HWI0/HWO0 control path can override the software confi
 136:D:/Infineon/Tools/DAVE IDE/4.5.0.202105191637/eclipse/workspace/XMC4300-app/Libraries/XMCLib/inc\xmc_gpio.h ****   XMC_GPIO_HWCTRL_PERIPHERAL2  = 0x2U  /**<  HWI1/HWO1 control path can override the software confi
 137:D:/Infineon/Tools/DAVE IDE/4.5.0.202105191637/eclipse/workspace/XMC4300-app/Libraries/XMCLib/inc\xmc_gpio.h **** } XMC_GPIO_HWCTRL_t;
 138:D:/Infineon/Tools/DAVE IDE/4.5.0.202105191637/eclipse/workspace/XMC4300-app/Libraries/XMCLib/inc\xmc_gpio.h **** 
 139:D:/Infineon/Tools/DAVE IDE/4.5.0.202105191637/eclipse/workspace/XMC4300-app/Libraries/XMCLib/inc\xmc_gpio.h **** /**************************************************************************************************
 140:D:/Infineon/Tools/DAVE IDE/4.5.0.202105191637/eclipse/workspace/XMC4300-app/Libraries/XMCLib/inc\xmc_gpio.h ****  * DEVICE FAMILY EXTENSIONS
 141:D:/Infineon/Tools/DAVE IDE/4.5.0.202105191637/eclipse/workspace/XMC4300-app/Libraries/XMCLib/inc\xmc_gpio.h ****  **************************************************************************************************
 142:D:/Infineon/Tools/DAVE IDE/4.5.0.202105191637/eclipse/workspace/XMC4300-app/Libraries/XMCLib/inc\xmc_gpio.h **** 
 143:D:/Infineon/Tools/DAVE IDE/4.5.0.202105191637/eclipse/workspace/XMC4300-app/Libraries/XMCLib/inc\xmc_gpio.h **** #if UC_FAMILY == XMC1
 144:D:/Infineon/Tools/DAVE IDE/4.5.0.202105191637/eclipse/workspace/XMC4300-app/Libraries/XMCLib/inc\xmc_gpio.h **** #include "xmc1_gpio.h"
 145:D:/Infineon/Tools/DAVE IDE/4.5.0.202105191637/eclipse/workspace/XMC4300-app/Libraries/XMCLib/inc\xmc_gpio.h **** #elif UC_FAMILY == XMC4
 146:D:/Infineon/Tools/DAVE IDE/4.5.0.202105191637/eclipse/workspace/XMC4300-app/Libraries/XMCLib/inc\xmc_gpio.h **** #include "xmc4_gpio.h"
 147:D:/Infineon/Tools/DAVE IDE/4.5.0.202105191637/eclipse/workspace/XMC4300-app/Libraries/XMCLib/inc\xmc_gpio.h **** #else
 148:D:/Infineon/Tools/DAVE IDE/4.5.0.202105191637/eclipse/workspace/XMC4300-app/Libraries/XMCLib/inc\xmc_gpio.h **** #error "xmc_gpio.h: family device not supported"
 149:D:/Infineon/Tools/DAVE IDE/4.5.0.202105191637/eclipse/workspace/XMC4300-app/Libraries/XMCLib/inc\xmc_gpio.h **** #endif
 150:D:/Infineon/Tools/DAVE IDE/4.5.0.202105191637/eclipse/workspace/XMC4300-app/Libraries/XMCLib/inc\xmc_gpio.h **** 
 151:D:/Infineon/Tools/DAVE IDE/4.5.0.202105191637/eclipse/workspace/XMC4300-app/Libraries/XMCLib/inc\xmc_gpio.h **** /**************************************************************************************************
 152:D:/Infineon/Tools/DAVE IDE/4.5.0.202105191637/eclipse/workspace/XMC4300-app/Libraries/XMCLib/inc\xmc_gpio.h ****  * API PROTOTYPES
 153:D:/Infineon/Tools/DAVE IDE/4.5.0.202105191637/eclipse/workspace/XMC4300-app/Libraries/XMCLib/inc\xmc_gpio.h ****  **************************************************************************************************
 154:D:/Infineon/Tools/DAVE IDE/4.5.0.202105191637/eclipse/workspace/XMC4300-app/Libraries/XMCLib/inc\xmc_gpio.h **** 
 155:D:/Infineon/Tools/DAVE IDE/4.5.0.202105191637/eclipse/workspace/XMC4300-app/Libraries/XMCLib/inc\xmc_gpio.h **** #ifdef __cplusplus
 156:D:/Infineon/Tools/DAVE IDE/4.5.0.202105191637/eclipse/workspace/XMC4300-app/Libraries/XMCLib/inc\xmc_gpio.h **** extern "C" {
 157:D:/Infineon/Tools/DAVE IDE/4.5.0.202105191637/eclipse/workspace/XMC4300-app/Libraries/XMCLib/inc\xmc_gpio.h **** #endif
 158:D:/Infineon/Tools/DAVE IDE/4.5.0.202105191637/eclipse/workspace/XMC4300-app/Libraries/XMCLib/inc\xmc_gpio.h **** 
 159:D:/Infineon/Tools/DAVE IDE/4.5.0.202105191637/eclipse/workspace/XMC4300-app/Libraries/XMCLib/inc\xmc_gpio.h **** 
 160:D:/Infineon/Tools/DAVE IDE/4.5.0.202105191637/eclipse/workspace/XMC4300-app/Libraries/XMCLib/inc\xmc_gpio.h **** /**
 161:D:/Infineon/Tools/DAVE IDE/4.5.0.202105191637/eclipse/workspace/XMC4300-app/Libraries/XMCLib/inc\xmc_gpio.h ****  * @param  port	  Constant pointer pointing to GPIO port, to access port registers like Pn_OUT,Pn_O
 162:D:/Infineon/Tools/DAVE IDE/4.5.0.202105191637/eclipse/workspace/XMC4300-app/Libraries/XMCLib/inc\xmc_gpio.h ****  * @param  pin	  Port pin number.
 163:D:/Infineon/Tools/DAVE IDE/4.5.0.202105191637/eclipse/workspace/XMC4300-app/Libraries/XMCLib/inc\xmc_gpio.h ****  * @param  config GPIO configuration data structure. Refer data structure @ref XMC_GPIO_CONFIG_t fo
 164:D:/Infineon/Tools/DAVE IDE/4.5.0.202105191637/eclipse/workspace/XMC4300-app/Libraries/XMCLib/inc\xmc_gpio.h ****  *
 165:D:/Infineon/Tools/DAVE IDE/4.5.0.202105191637/eclipse/workspace/XMC4300-app/Libraries/XMCLib/inc\xmc_gpio.h ****  * @return None
 166:D:/Infineon/Tools/DAVE IDE/4.5.0.202105191637/eclipse/workspace/XMC4300-app/Libraries/XMCLib/inc\xmc_gpio.h ****  *
 167:D:/Infineon/Tools/DAVE IDE/4.5.0.202105191637/eclipse/workspace/XMC4300-app/Libraries/XMCLib/inc\xmc_gpio.h ****  * \par<b>Description:</b><br>
 168:D:/Infineon/Tools/DAVE IDE/4.5.0.202105191637/eclipse/workspace/XMC4300-app/Libraries/XMCLib/inc\xmc_gpio.h ****  * \if XMC1
 169:D:/Infineon/Tools/DAVE IDE/4.5.0.202105191637/eclipse/workspace/XMC4300-app/Libraries/XMCLib/inc\xmc_gpio.h ****  * Initializes input / output mode settings like, pull up / pull down devices,hysteresis, push pull
 170:D:/Infineon/Tools/DAVE IDE/4.5.0.202105191637/eclipse/workspace/XMC4300-app/Libraries/XMCLib/inc\xmc_gpio.h ****  * Also configures alternate function outputs and clears hardware port control for a selected \a po
 171:D:/Infineon/Tools/DAVE IDE/4.5.0.202105191637/eclipse/workspace/XMC4300-app/Libraries/XMCLib/inc\xmc_gpio.h ****  * \a config provides selected I/O settings. It configures hardware registers Pn_IOCR,Pn_OUT, Pn_OM
 172:D:/Infineon/Tools/DAVE IDE/4.5.0.202105191637/eclipse/workspace/XMC4300-app/Libraries/XMCLib/inc\xmc_gpio.h ****  * \endif
 173:D:/Infineon/Tools/DAVE IDE/4.5.0.202105191637/eclipse/workspace/XMC4300-app/Libraries/XMCLib/inc\xmc_gpio.h ****  * \if XMC4
 174:D:/Infineon/Tools/DAVE IDE/4.5.0.202105191637/eclipse/workspace/XMC4300-app/Libraries/XMCLib/inc\xmc_gpio.h ****  * Initializes input / output mode settings like, pull up / pull down devices,push pull /open drain
 175:D:/Infineon/Tools/DAVE IDE/4.5.0.202105191637/eclipse/workspace/XMC4300-app/Libraries/XMCLib/inc\xmc_gpio.h ****  * Also configures alternate function outputs and clears hardware port control for selected \a port
 176:D:/Infineon/Tools/DAVE IDE/4.5.0.202105191637/eclipse/workspace/XMC4300-app/Libraries/XMCLib/inc\xmc_gpio.h ****  * It configures hardware registers Pn_IOCR,Pn_OUT,Pn_OMR,Pn_PDISC and Pn_PDR.\n
 177:D:/Infineon/Tools/DAVE IDE/4.5.0.202105191637/eclipse/workspace/XMC4300-app/Libraries/XMCLib/inc\xmc_gpio.h ****  * \endif
 178:D:/Infineon/Tools/DAVE IDE/4.5.0.202105191637/eclipse/workspace/XMC4300-app/Libraries/XMCLib/inc\xmc_gpio.h ****  *
 179:D:/Infineon/Tools/DAVE IDE/4.5.0.202105191637/eclipse/workspace/XMC4300-app/Libraries/XMCLib/inc\xmc_gpio.h ****  * \par<b>Related APIs:</b><BR>
 180:D:/Infineon/Tools/DAVE IDE/4.5.0.202105191637/eclipse/workspace/XMC4300-app/Libraries/XMCLib/inc\xmc_gpio.h ****  *  None
 181:D:/Infineon/Tools/DAVE IDE/4.5.0.202105191637/eclipse/workspace/XMC4300-app/Libraries/XMCLib/inc\xmc_gpio.h ****  *
 182:D:/Infineon/Tools/DAVE IDE/4.5.0.202105191637/eclipse/workspace/XMC4300-app/Libraries/XMCLib/inc\xmc_gpio.h ****  * \par<b>Note:</b><br>
 183:D:/Infineon/Tools/DAVE IDE/4.5.0.202105191637/eclipse/workspace/XMC4300-app/Libraries/XMCLib/inc\xmc_gpio.h ****  * This API is called in definition of DAVE_init by code generation and therefore should not be exp
 184:D:/Infineon/Tools/DAVE IDE/4.5.0.202105191637/eclipse/workspace/XMC4300-app/Libraries/XMCLib/inc\xmc_gpio.h ****  * for the normal operation. Use other APIs only after DAVE_init is called successfully (returns DA
 185:D:/Infineon/Tools/DAVE IDE/4.5.0.202105191637/eclipse/workspace/XMC4300-app/Libraries/XMCLib/inc\xmc_gpio.h ****  *
 186:D:/Infineon/Tools/DAVE IDE/4.5.0.202105191637/eclipse/workspace/XMC4300-app/Libraries/XMCLib/inc\xmc_gpio.h ****  *
 187:D:/Infineon/Tools/DAVE IDE/4.5.0.202105191637/eclipse/workspace/XMC4300-app/Libraries/XMCLib/inc\xmc_gpio.h ****  */
 188:D:/Infineon/Tools/DAVE IDE/4.5.0.202105191637/eclipse/workspace/XMC4300-app/Libraries/XMCLib/inc\xmc_gpio.h **** 
 189:D:/Infineon/Tools/DAVE IDE/4.5.0.202105191637/eclipse/workspace/XMC4300-app/Libraries/XMCLib/inc\xmc_gpio.h **** 
 190:D:/Infineon/Tools/DAVE IDE/4.5.0.202105191637/eclipse/workspace/XMC4300-app/Libraries/XMCLib/inc\xmc_gpio.h **** void XMC_GPIO_Init(XMC_GPIO_PORT_t *const port, const uint8_t pin, const XMC_GPIO_CONFIG_t *const c
 191:D:/Infineon/Tools/DAVE IDE/4.5.0.202105191637/eclipse/workspace/XMC4300-app/Libraries/XMCLib/inc\xmc_gpio.h **** 
 192:D:/Infineon/Tools/DAVE IDE/4.5.0.202105191637/eclipse/workspace/XMC4300-app/Libraries/XMCLib/inc\xmc_gpio.h **** /**
 193:D:/Infineon/Tools/DAVE IDE/4.5.0.202105191637/eclipse/workspace/XMC4300-app/Libraries/XMCLib/inc\xmc_gpio.h ****  *
 194:D:/Infineon/Tools/DAVE IDE/4.5.0.202105191637/eclipse/workspace/XMC4300-app/Libraries/XMCLib/inc\xmc_gpio.h ****  * @param  port	Constant pointer pointing to GPIO port, to access hardware register Pn_IOCR.
 195:D:/Infineon/Tools/DAVE IDE/4.5.0.202105191637/eclipse/workspace/XMC4300-app/Libraries/XMCLib/inc\xmc_gpio.h ****  * @param  pin	Port pin number.
 196:D:/Infineon/Tools/DAVE IDE/4.5.0.202105191637/eclipse/workspace/XMC4300-app/Libraries/XMCLib/inc\xmc_gpio.h ****  * @param  mode input / output functionality selection. Refer @ref XMC_GPIO_MODE_t for valid values
 197:D:/Infineon/Tools/DAVE IDE/4.5.0.202105191637/eclipse/workspace/XMC4300-app/Libraries/XMCLib/inc\xmc_gpio.h ****  *
 198:D:/Infineon/Tools/DAVE IDE/4.5.0.202105191637/eclipse/workspace/XMC4300-app/Libraries/XMCLib/inc\xmc_gpio.h ****  * @return None
 199:D:/Infineon/Tools/DAVE IDE/4.5.0.202105191637/eclipse/workspace/XMC4300-app/Libraries/XMCLib/inc\xmc_gpio.h ****  *
 200:D:/Infineon/Tools/DAVE IDE/4.5.0.202105191637/eclipse/workspace/XMC4300-app/Libraries/XMCLib/inc\xmc_gpio.h ****  * \par<b>Description:</b><br>
 201:D:/Infineon/Tools/DAVE IDE/4.5.0.202105191637/eclipse/workspace/XMC4300-app/Libraries/XMCLib/inc\xmc_gpio.h ****  * Sets digital input and output driver functionality and characteristics of a GPIO port pin. It co
 202:D:/Infineon/Tools/DAVE IDE/4.5.0.202105191637/eclipse/workspace/XMC4300-app/Libraries/XMCLib/inc\xmc_gpio.h ****  * registers Pn_IOCR. \a mode is initially configured during initialization in XMC_GPIO_Init(). Cal
 203:D:/Infineon/Tools/DAVE IDE/4.5.0.202105191637/eclipse/workspace/XMC4300-app/Libraries/XMCLib/inc\xmc_gpio.h ****  * the port direction functionality as needed later in the program.
 204:D:/Infineon/Tools/DAVE IDE/4.5.0.202105191637/eclipse/workspace/XMC4300-app/Libraries/XMCLib/inc\xmc_gpio.h ****  *
 205:D:/Infineon/Tools/DAVE IDE/4.5.0.202105191637/eclipse/workspace/XMC4300-app/Libraries/XMCLib/inc\xmc_gpio.h ****  * \par<b>Related APIs:</b><BR>
 206:D:/Infineon/Tools/DAVE IDE/4.5.0.202105191637/eclipse/workspace/XMC4300-app/Libraries/XMCLib/inc\xmc_gpio.h ****  *  None
 207:D:/Infineon/Tools/DAVE IDE/4.5.0.202105191637/eclipse/workspace/XMC4300-app/Libraries/XMCLib/inc\xmc_gpio.h ****  *
 208:D:/Infineon/Tools/DAVE IDE/4.5.0.202105191637/eclipse/workspace/XMC4300-app/Libraries/XMCLib/inc\xmc_gpio.h ****  */
 209:D:/Infineon/Tools/DAVE IDE/4.5.0.202105191637/eclipse/workspace/XMC4300-app/Libraries/XMCLib/inc\xmc_gpio.h **** 
 210:D:/Infineon/Tools/DAVE IDE/4.5.0.202105191637/eclipse/workspace/XMC4300-app/Libraries/XMCLib/inc\xmc_gpio.h **** void XMC_GPIO_SetMode(XMC_GPIO_PORT_t *const port, const uint8_t pin, const XMC_GPIO_MODE_t mode);
 211:D:/Infineon/Tools/DAVE IDE/4.5.0.202105191637/eclipse/workspace/XMC4300-app/Libraries/XMCLib/inc\xmc_gpio.h **** 
 212:D:/Infineon/Tools/DAVE IDE/4.5.0.202105191637/eclipse/workspace/XMC4300-app/Libraries/XMCLib/inc\xmc_gpio.h **** 
 213:D:/Infineon/Tools/DAVE IDE/4.5.0.202105191637/eclipse/workspace/XMC4300-app/Libraries/XMCLib/inc\xmc_gpio.h **** /**
 214:D:/Infineon/Tools/DAVE IDE/4.5.0.202105191637/eclipse/workspace/XMC4300-app/Libraries/XMCLib/inc\xmc_gpio.h ****  *
 215:D:/Infineon/Tools/DAVE IDE/4.5.0.202105191637/eclipse/workspace/XMC4300-app/Libraries/XMCLib/inc\xmc_gpio.h ****  * @param  port	 Constant pointer pointing to GPIO port, to access hardware register Pn_OMR.
 216:D:/Infineon/Tools/DAVE IDE/4.5.0.202105191637/eclipse/workspace/XMC4300-app/Libraries/XMCLib/inc\xmc_gpio.h ****  * @param  pin	 Port pin number.
 217:D:/Infineon/Tools/DAVE IDE/4.5.0.202105191637/eclipse/workspace/XMC4300-app/Libraries/XMCLib/inc\xmc_gpio.h ****  * @param  level output level selection. Refer @ref XMC_GPIO_OUTPUT_LEVEL_t for valid values.
 218:D:/Infineon/Tools/DAVE IDE/4.5.0.202105191637/eclipse/workspace/XMC4300-app/Libraries/XMCLib/inc\xmc_gpio.h ****  *
 219:D:/Infineon/Tools/DAVE IDE/4.5.0.202105191637/eclipse/workspace/XMC4300-app/Libraries/XMCLib/inc\xmc_gpio.h ****  * @return None
 220:D:/Infineon/Tools/DAVE IDE/4.5.0.202105191637/eclipse/workspace/XMC4300-app/Libraries/XMCLib/inc\xmc_gpio.h ****  *
 221:D:/Infineon/Tools/DAVE IDE/4.5.0.202105191637/eclipse/workspace/XMC4300-app/Libraries/XMCLib/inc\xmc_gpio.h ****  * \par<b>Description:</b><br>
 222:D:/Infineon/Tools/DAVE IDE/4.5.0.202105191637/eclipse/workspace/XMC4300-app/Libraries/XMCLib/inc\xmc_gpio.h ****  * Set port pin output level to high or low.It configures hardware registers Pn_OMR.\a level is ini
 223:D:/Infineon/Tools/DAVE IDE/4.5.0.202105191637/eclipse/workspace/XMC4300-app/Libraries/XMCLib/inc\xmc_gpio.h ****  * configured during initialization in XMC_GPIO_Init(). Call this API to alter output level as need
 224:D:/Infineon/Tools/DAVE IDE/4.5.0.202105191637/eclipse/workspace/XMC4300-app/Libraries/XMCLib/inc\xmc_gpio.h ****  *
 225:D:/Infineon/Tools/DAVE IDE/4.5.0.202105191637/eclipse/workspace/XMC4300-app/Libraries/XMCLib/inc\xmc_gpio.h ****  * \par<b>Related APIs:</b><BR>
 226:D:/Infineon/Tools/DAVE IDE/4.5.0.202105191637/eclipse/workspace/XMC4300-app/Libraries/XMCLib/inc\xmc_gpio.h ****  *  XMC_GPIO_SetOutputHigh(), XMC_GPIO_SetOutputLow().
 227:D:/Infineon/Tools/DAVE IDE/4.5.0.202105191637/eclipse/workspace/XMC4300-app/Libraries/XMCLib/inc\xmc_gpio.h ****  *
 228:D:/Infineon/Tools/DAVE IDE/4.5.0.202105191637/eclipse/workspace/XMC4300-app/Libraries/XMCLib/inc\xmc_gpio.h ****  * \par<b>Note:</b><br>
 229:D:/Infineon/Tools/DAVE IDE/4.5.0.202105191637/eclipse/workspace/XMC4300-app/Libraries/XMCLib/inc\xmc_gpio.h ****  * Prior to this api, user has to configure port pin to output mode using XMC_GPIO_SetMode().
 230:D:/Infineon/Tools/DAVE IDE/4.5.0.202105191637/eclipse/workspace/XMC4300-app/Libraries/XMCLib/inc\xmc_gpio.h ****  *
 231:D:/Infineon/Tools/DAVE IDE/4.5.0.202105191637/eclipse/workspace/XMC4300-app/Libraries/XMCLib/inc\xmc_gpio.h ****  */
 232:D:/Infineon/Tools/DAVE IDE/4.5.0.202105191637/eclipse/workspace/XMC4300-app/Libraries/XMCLib/inc\xmc_gpio.h **** 
 233:D:/Infineon/Tools/DAVE IDE/4.5.0.202105191637/eclipse/workspace/XMC4300-app/Libraries/XMCLib/inc\xmc_gpio.h **** 
 234:D:/Infineon/Tools/DAVE IDE/4.5.0.202105191637/eclipse/workspace/XMC4300-app/Libraries/XMCLib/inc\xmc_gpio.h **** __STATIC_INLINE void XMC_GPIO_SetOutputLevel(XMC_GPIO_PORT_t *const port, const uint8_t pin, const 
 235:D:/Infineon/Tools/DAVE IDE/4.5.0.202105191637/eclipse/workspace/XMC4300-app/Libraries/XMCLib/inc\xmc_gpio.h **** {
 236:D:/Infineon/Tools/DAVE IDE/4.5.0.202105191637/eclipse/workspace/XMC4300-app/Libraries/XMCLib/inc\xmc_gpio.h ****   XMC_ASSERT("XMC_GPIO_SetOutputLevel: Invalid port", XMC_GPIO_CHECK_OUTPUT_PORT(port));
 237:D:/Infineon/Tools/DAVE IDE/4.5.0.202105191637/eclipse/workspace/XMC4300-app/Libraries/XMCLib/inc\xmc_gpio.h ****   XMC_ASSERT("XMC_GPIO_SetOutputLevel: Invalid output level", XMC_GPIO_CHECK_OUTPUT_LEVEL(level));
 238:D:/Infineon/Tools/DAVE IDE/4.5.0.202105191637/eclipse/workspace/XMC4300-app/Libraries/XMCLib/inc\xmc_gpio.h **** 
 239:D:/Infineon/Tools/DAVE IDE/4.5.0.202105191637/eclipse/workspace/XMC4300-app/Libraries/XMCLib/inc\xmc_gpio.h ****   port->OMR = (uint32_t)level << pin;
 240:D:/Infineon/Tools/DAVE IDE/4.5.0.202105191637/eclipse/workspace/XMC4300-app/Libraries/XMCLib/inc\xmc_gpio.h **** }
 241:D:/Infineon/Tools/DAVE IDE/4.5.0.202105191637/eclipse/workspace/XMC4300-app/Libraries/XMCLib/inc\xmc_gpio.h **** 
 242:D:/Infineon/Tools/DAVE IDE/4.5.0.202105191637/eclipse/workspace/XMC4300-app/Libraries/XMCLib/inc\xmc_gpio.h **** 
 243:D:/Infineon/Tools/DAVE IDE/4.5.0.202105191637/eclipse/workspace/XMC4300-app/Libraries/XMCLib/inc\xmc_gpio.h **** /**
 244:D:/Infineon/Tools/DAVE IDE/4.5.0.202105191637/eclipse/workspace/XMC4300-app/Libraries/XMCLib/inc\xmc_gpio.h ****  * @param  port constant pointer pointing to GPIO port, to access hardware register Pn_OMR.
 245:D:/Infineon/Tools/DAVE IDE/4.5.0.202105191637/eclipse/workspace/XMC4300-app/Libraries/XMCLib/inc\xmc_gpio.h ****  * @param  pin	Port pin number.
 246:D:/Infineon/Tools/DAVE IDE/4.5.0.202105191637/eclipse/workspace/XMC4300-app/Libraries/XMCLib/inc\xmc_gpio.h ****  *
 247:D:/Infineon/Tools/DAVE IDE/4.5.0.202105191637/eclipse/workspace/XMC4300-app/Libraries/XMCLib/inc\xmc_gpio.h ****  * @return None
 248:D:/Infineon/Tools/DAVE IDE/4.5.0.202105191637/eclipse/workspace/XMC4300-app/Libraries/XMCLib/inc\xmc_gpio.h ****  *
 249:D:/Infineon/Tools/DAVE IDE/4.5.0.202105191637/eclipse/workspace/XMC4300-app/Libraries/XMCLib/inc\xmc_gpio.h ****  * \par<b>Description:</b><br>
 250:D:/Infineon/Tools/DAVE IDE/4.5.0.202105191637/eclipse/workspace/XMC4300-app/Libraries/XMCLib/inc\xmc_gpio.h ****  *  Sets port pin output to high. It configures hardware registers Pn_OMR.
 251:D:/Infineon/Tools/DAVE IDE/4.5.0.202105191637/eclipse/workspace/XMC4300-app/Libraries/XMCLib/inc\xmc_gpio.h ****  *
 252:D:/Infineon/Tools/DAVE IDE/4.5.0.202105191637/eclipse/workspace/XMC4300-app/Libraries/XMCLib/inc\xmc_gpio.h ****  *  \par<b>Related APIs:</b><BR>
 253:D:/Infineon/Tools/DAVE IDE/4.5.0.202105191637/eclipse/workspace/XMC4300-app/Libraries/XMCLib/inc\xmc_gpio.h ****  *  XMC_GPIO_SetOutputLow()
 254:D:/Infineon/Tools/DAVE IDE/4.5.0.202105191637/eclipse/workspace/XMC4300-app/Libraries/XMCLib/inc\xmc_gpio.h ****  *
 255:D:/Infineon/Tools/DAVE IDE/4.5.0.202105191637/eclipse/workspace/XMC4300-app/Libraries/XMCLib/inc\xmc_gpio.h ****  * \par<b>Note:</b><br>
 256:D:/Infineon/Tools/DAVE IDE/4.5.0.202105191637/eclipse/workspace/XMC4300-app/Libraries/XMCLib/inc\xmc_gpio.h ****  * Prior to this api, user has to configure port pin to output mode using XMC_GPIO_SetMode().\n
 257:D:/Infineon/Tools/DAVE IDE/4.5.0.202105191637/eclipse/workspace/XMC4300-app/Libraries/XMCLib/inc\xmc_gpio.h ****  * Register Pn_OMR is virtual and does not contain any flip-flop. A read action delivers the value 
 258:D:/Infineon/Tools/DAVE IDE/4.5.0.202105191637/eclipse/workspace/XMC4300-app/Libraries/XMCLib/inc\xmc_gpio.h ****  *
 259:D:/Infineon/Tools/DAVE IDE/4.5.0.202105191637/eclipse/workspace/XMC4300-app/Libraries/XMCLib/inc\xmc_gpio.h ****  */
 260:D:/Infineon/Tools/DAVE IDE/4.5.0.202105191637/eclipse/workspace/XMC4300-app/Libraries/XMCLib/inc\xmc_gpio.h **** 
 261:D:/Infineon/Tools/DAVE IDE/4.5.0.202105191637/eclipse/workspace/XMC4300-app/Libraries/XMCLib/inc\xmc_gpio.h **** __STATIC_INLINE void XMC_GPIO_SetOutputHigh(XMC_GPIO_PORT_t *const port, const uint8_t pin)
 262:D:/Infineon/Tools/DAVE IDE/4.5.0.202105191637/eclipse/workspace/XMC4300-app/Libraries/XMCLib/inc\xmc_gpio.h **** {
 263:D:/Infineon/Tools/DAVE IDE/4.5.0.202105191637/eclipse/workspace/XMC4300-app/Libraries/XMCLib/inc\xmc_gpio.h ****   XMC_ASSERT("XMC_GPIO_SetOutputHigh: Invalid port", XMC_GPIO_CHECK_OUTPUT_PORT(port));
 264:D:/Infineon/Tools/DAVE IDE/4.5.0.202105191637/eclipse/workspace/XMC4300-app/Libraries/XMCLib/inc\xmc_gpio.h **** 
 265:D:/Infineon/Tools/DAVE IDE/4.5.0.202105191637/eclipse/workspace/XMC4300-app/Libraries/XMCLib/inc\xmc_gpio.h ****   port->OMR = (uint32_t)0x1U << pin;
 266:D:/Infineon/Tools/DAVE IDE/4.5.0.202105191637/eclipse/workspace/XMC4300-app/Libraries/XMCLib/inc\xmc_gpio.h **** }
 267:D:/Infineon/Tools/DAVE IDE/4.5.0.202105191637/eclipse/workspace/XMC4300-app/Libraries/XMCLib/inc\xmc_gpio.h **** 
 268:D:/Infineon/Tools/DAVE IDE/4.5.0.202105191637/eclipse/workspace/XMC4300-app/Libraries/XMCLib/inc\xmc_gpio.h **** /**
 269:D:/Infineon/Tools/DAVE IDE/4.5.0.202105191637/eclipse/workspace/XMC4300-app/Libraries/XMCLib/inc\xmc_gpio.h ****  *
 270:D:/Infineon/Tools/DAVE IDE/4.5.0.202105191637/eclipse/workspace/XMC4300-app/Libraries/XMCLib/inc\xmc_gpio.h ****  * @param  port	constant pointer pointing to GPIO port, to access hardware register Pn_OMR.
 271:D:/Infineon/Tools/DAVE IDE/4.5.0.202105191637/eclipse/workspace/XMC4300-app/Libraries/XMCLib/inc\xmc_gpio.h ****  * @param  pin	port pin number.
 272:D:/Infineon/Tools/DAVE IDE/4.5.0.202105191637/eclipse/workspace/XMC4300-app/Libraries/XMCLib/inc\xmc_gpio.h ****  *
 273:D:/Infineon/Tools/DAVE IDE/4.5.0.202105191637/eclipse/workspace/XMC4300-app/Libraries/XMCLib/inc\xmc_gpio.h ****  * @return  None
 274:D:/Infineon/Tools/DAVE IDE/4.5.0.202105191637/eclipse/workspace/XMC4300-app/Libraries/XMCLib/inc\xmc_gpio.h ****  *
 275:D:/Infineon/Tools/DAVE IDE/4.5.0.202105191637/eclipse/workspace/XMC4300-app/Libraries/XMCLib/inc\xmc_gpio.h ****  *\par<b>Description:</b><br>
 276:D:/Infineon/Tools/DAVE IDE/4.5.0.202105191637/eclipse/workspace/XMC4300-app/Libraries/XMCLib/inc\xmc_gpio.h ****  * Sets port pin output to low. It configures hardware registers Pn_OMR.\n
 277:D:/Infineon/Tools/DAVE IDE/4.5.0.202105191637/eclipse/workspace/XMC4300-app/Libraries/XMCLib/inc\xmc_gpio.h ****  *
 278:D:/Infineon/Tools/DAVE IDE/4.5.0.202105191637/eclipse/workspace/XMC4300-app/Libraries/XMCLib/inc\xmc_gpio.h ****  * \par<b>Related APIs:</b><BR>>
 279:D:/Infineon/Tools/DAVE IDE/4.5.0.202105191637/eclipse/workspace/XMC4300-app/Libraries/XMCLib/inc\xmc_gpio.h ****  * XMC_GPIO_SetOutputHigh()
 280:D:/Infineon/Tools/DAVE IDE/4.5.0.202105191637/eclipse/workspace/XMC4300-app/Libraries/XMCLib/inc\xmc_gpio.h ****  *
 281:D:/Infineon/Tools/DAVE IDE/4.5.0.202105191637/eclipse/workspace/XMC4300-app/Libraries/XMCLib/inc\xmc_gpio.h ****  *\par<b>Note:</b><br>
 282:D:/Infineon/Tools/DAVE IDE/4.5.0.202105191637/eclipse/workspace/XMC4300-app/Libraries/XMCLib/inc\xmc_gpio.h ****  * Prior to this api, user has to configure port pin to output mode using XMC_GPIO_SetMode().
 283:D:/Infineon/Tools/DAVE IDE/4.5.0.202105191637/eclipse/workspace/XMC4300-app/Libraries/XMCLib/inc\xmc_gpio.h ****  * Register Pn_OMR is virtual and does not contain any flip-flop. A read action delivers the value 
 284:D:/Infineon/Tools/DAVE IDE/4.5.0.202105191637/eclipse/workspace/XMC4300-app/Libraries/XMCLib/inc\xmc_gpio.h ****  *
 285:D:/Infineon/Tools/DAVE IDE/4.5.0.202105191637/eclipse/workspace/XMC4300-app/Libraries/XMCLib/inc\xmc_gpio.h ****  */
 286:D:/Infineon/Tools/DAVE IDE/4.5.0.202105191637/eclipse/workspace/XMC4300-app/Libraries/XMCLib/inc\xmc_gpio.h **** 
 287:D:/Infineon/Tools/DAVE IDE/4.5.0.202105191637/eclipse/workspace/XMC4300-app/Libraries/XMCLib/inc\xmc_gpio.h **** __STATIC_INLINE void XMC_GPIO_SetOutputLow(XMC_GPIO_PORT_t *const port, const uint8_t pin)
 288:D:/Infineon/Tools/DAVE IDE/4.5.0.202105191637/eclipse/workspace/XMC4300-app/Libraries/XMCLib/inc\xmc_gpio.h **** {
 289:D:/Infineon/Tools/DAVE IDE/4.5.0.202105191637/eclipse/workspace/XMC4300-app/Libraries/XMCLib/inc\xmc_gpio.h ****   XMC_ASSERT("XMC_GPIO_SetOutputLow: Invalid port", XMC_GPIO_CHECK_OUTPUT_PORT(port));
 290:D:/Infineon/Tools/DAVE IDE/4.5.0.202105191637/eclipse/workspace/XMC4300-app/Libraries/XMCLib/inc\xmc_gpio.h **** 
 291:D:/Infineon/Tools/DAVE IDE/4.5.0.202105191637/eclipse/workspace/XMC4300-app/Libraries/XMCLib/inc\xmc_gpio.h ****   port->OMR = 0x10000U << pin;
 292:D:/Infineon/Tools/DAVE IDE/4.5.0.202105191637/eclipse/workspace/XMC4300-app/Libraries/XMCLib/inc\xmc_gpio.h **** }
 293:D:/Infineon/Tools/DAVE IDE/4.5.0.202105191637/eclipse/workspace/XMC4300-app/Libraries/XMCLib/inc\xmc_gpio.h **** 
 294:D:/Infineon/Tools/DAVE IDE/4.5.0.202105191637/eclipse/workspace/XMC4300-app/Libraries/XMCLib/inc\xmc_gpio.h **** /**
 295:D:/Infineon/Tools/DAVE IDE/4.5.0.202105191637/eclipse/workspace/XMC4300-app/Libraries/XMCLib/inc\xmc_gpio.h ****  *
 296:D:/Infineon/Tools/DAVE IDE/4.5.0.202105191637/eclipse/workspace/XMC4300-app/Libraries/XMCLib/inc\xmc_gpio.h ****  * @param port constant pointer pointing to GPIO port, to access hardware register Pn_OMR.
 297:D:/Infineon/Tools/DAVE IDE/4.5.0.202105191637/eclipse/workspace/XMC4300-app/Libraries/XMCLib/inc\xmc_gpio.h ****  * @param pin  port pin number.
 298:D:/Infineon/Tools/DAVE IDE/4.5.0.202105191637/eclipse/workspace/XMC4300-app/Libraries/XMCLib/inc\xmc_gpio.h ****  *
 299:D:/Infineon/Tools/DAVE IDE/4.5.0.202105191637/eclipse/workspace/XMC4300-app/Libraries/XMCLib/inc\xmc_gpio.h ****  * @return None
 300:D:/Infineon/Tools/DAVE IDE/4.5.0.202105191637/eclipse/workspace/XMC4300-app/Libraries/XMCLib/inc\xmc_gpio.h ****  *
 301:D:/Infineon/Tools/DAVE IDE/4.5.0.202105191637/eclipse/workspace/XMC4300-app/Libraries/XMCLib/inc\xmc_gpio.h ****  * \par<b>Description:</b><br>
 302:D:/Infineon/Tools/DAVE IDE/4.5.0.202105191637/eclipse/workspace/XMC4300-app/Libraries/XMCLib/inc\xmc_gpio.h ****  * Configures port pin output to Toggle. It configures hardware registers Pn_OMR.
 303:D:/Infineon/Tools/DAVE IDE/4.5.0.202105191637/eclipse/workspace/XMC4300-app/Libraries/XMCLib/inc\xmc_gpio.h ****  *
 304:D:/Infineon/Tools/DAVE IDE/4.5.0.202105191637/eclipse/workspace/XMC4300-app/Libraries/XMCLib/inc\xmc_gpio.h ****  * \par<b>Related APIs:</b><BR>
 305:D:/Infineon/Tools/DAVE IDE/4.5.0.202105191637/eclipse/workspace/XMC4300-app/Libraries/XMCLib/inc\xmc_gpio.h ****  * XMC_GPIO_SetOutputHigh(), XMC_GPIO_SetOutputLow().
 306:D:/Infineon/Tools/DAVE IDE/4.5.0.202105191637/eclipse/workspace/XMC4300-app/Libraries/XMCLib/inc\xmc_gpio.h ****  *
 307:D:/Infineon/Tools/DAVE IDE/4.5.0.202105191637/eclipse/workspace/XMC4300-app/Libraries/XMCLib/inc\xmc_gpio.h ****  * \par<b>Note:</b><br>
 308:D:/Infineon/Tools/DAVE IDE/4.5.0.202105191637/eclipse/workspace/XMC4300-app/Libraries/XMCLib/inc\xmc_gpio.h ****  * Prior to this api, user has to configure port pin to output mode using XMC_GPIO_SetMode(). Regis
 309:D:/Infineon/Tools/DAVE IDE/4.5.0.202105191637/eclipse/workspace/XMC4300-app/Libraries/XMCLib/inc\xmc_gpio.h ****  * and does not contain any flip-flop. A read action delivers the value of 0.
 310:D:/Infineon/Tools/DAVE IDE/4.5.0.202105191637/eclipse/workspace/XMC4300-app/Libraries/XMCLib/inc\xmc_gpio.h ****  *
 311:D:/Infineon/Tools/DAVE IDE/4.5.0.202105191637/eclipse/workspace/XMC4300-app/Libraries/XMCLib/inc\xmc_gpio.h ****  */
 312:D:/Infineon/Tools/DAVE IDE/4.5.0.202105191637/eclipse/workspace/XMC4300-app/Libraries/XMCLib/inc\xmc_gpio.h **** 
 313:D:/Infineon/Tools/DAVE IDE/4.5.0.202105191637/eclipse/workspace/XMC4300-app/Libraries/XMCLib/inc\xmc_gpio.h **** __STATIC_INLINE void XMC_GPIO_ToggleOutput(XMC_GPIO_PORT_t *const port, const uint8_t pin)
 314:D:/Infineon/Tools/DAVE IDE/4.5.0.202105191637/eclipse/workspace/XMC4300-app/Libraries/XMCLib/inc\xmc_gpio.h **** {
  27              	 .loc 1 314 0
  28              	 .cfi_startproc
  29              	 
  30              	 
  31              	 
  32 0000 80B4     	 push {r7}
  33              	.LCFI0:
  34              	 .cfi_def_cfa_offset 4
  35              	 .cfi_offset 7,-4
  36 0002 83B0     	 sub sp,sp,#12
  37              	.LCFI1:
  38              	 .cfi_def_cfa_offset 16
  39 0004 00AF     	 add r7,sp,#0
  40              	.LCFI2:
  41              	 .cfi_def_cfa_register 7
  42 0006 7860     	 str r0,[r7,#4]
  43 0008 0B46     	 mov r3,r1
  44 000a FB70     	 strb r3,[r7,#3]
 315:D:/Infineon/Tools/DAVE IDE/4.5.0.202105191637/eclipse/workspace/XMC4300-app/Libraries/XMCLib/inc\xmc_gpio.h ****   XMC_ASSERT("XMC_GPIO_ToggleOutput: Invalid port", XMC_GPIO_CHECK_OUTPUT_PORT(port));
 316:D:/Infineon/Tools/DAVE IDE/4.5.0.202105191637/eclipse/workspace/XMC4300-app/Libraries/XMCLib/inc\xmc_gpio.h **** 
 317:D:/Infineon/Tools/DAVE IDE/4.5.0.202105191637/eclipse/workspace/XMC4300-app/Libraries/XMCLib/inc\xmc_gpio.h ****   port->OMR = 0x10001U << pin;
  45              	 .loc 1 317 0
  46 000c FB78     	 ldrb r3,[r7,#3]
  47 000e 4FF00112 	 mov r2,#65537
  48 0012 9A40     	 lsls r2,r2,r3
  49 0014 7B68     	 ldr r3,[r7,#4]
  50 0016 5A60     	 str r2,[r3,#4]
 318:D:/Infineon/Tools/DAVE IDE/4.5.0.202105191637/eclipse/workspace/XMC4300-app/Libraries/XMCLib/inc\xmc_gpio.h **** }
  51              	 .loc 1 318 0
  52 0018 0C37     	 adds r7,r7,#12
  53              	.LCFI3:
  54              	 .cfi_def_cfa_offset 4
  55 001a BD46     	 mov sp,r7
  56              	.LCFI4:
  57              	 .cfi_def_cfa_register 13
  58              	 
  59 001c 5DF8047B 	 ldr r7,[sp],#4
  60              	.LCFI5:
  61              	 .cfi_restore 7
  62              	 .cfi_def_cfa_offset 0
  63 0020 7047     	 bx lr
  64              	 .cfi_endproc
  65              	.LFE137:
  67 0022 00BF     	 .section .text.DIGITAL_IO_ToggleOutput,"ax",%progbits
  68              	 .align 2
  69              	 .thumb
  70              	 .thumb_func
  72              	DIGITAL_IO_ToggleOutput:
  73              	.LFB145:
  74              	 .file 2 "D:/Infineon/Tools/DAVE IDE/4.5.0.202105191637/eclipse/workspace/XMC4300-app/Dave/Generated/DIGITAL_IO/digital_io.h"
   1:D:/Infineon/Tools/DAVE IDE/4.5.0.202105191637/eclipse/workspace/XMC4300-app/Dave/Generated/DIGITAL_IO\digital_io.h **** /*
   2:D:/Infineon/Tools/DAVE IDE/4.5.0.202105191637/eclipse/workspace/XMC4300-app/Dave/Generated/DIGITAL_IO\digital_io.h ****  *
   3:D:/Infineon/Tools/DAVE IDE/4.5.0.202105191637/eclipse/workspace/XMC4300-app/Dave/Generated/DIGITAL_IO\digital_io.h ****  * @file digital_io.h
   4:D:/Infineon/Tools/DAVE IDE/4.5.0.202105191637/eclipse/workspace/XMC4300-app/Dave/Generated/DIGITAL_IO\digital_io.h ****  * @date 2021-01-08
   5:D:/Infineon/Tools/DAVE IDE/4.5.0.202105191637/eclipse/workspace/XMC4300-app/Dave/Generated/DIGITAL_IO\digital_io.h ****  *
   6:D:/Infineon/Tools/DAVE IDE/4.5.0.202105191637/eclipse/workspace/XMC4300-app/Dave/Generated/DIGITAL_IO\digital_io.h ****  * NOTE:
   7:D:/Infineon/Tools/DAVE IDE/4.5.0.202105191637/eclipse/workspace/XMC4300-app/Dave/Generated/DIGITAL_IO\digital_io.h ****  * This file is generated by DAVE. Any manual modification done to this file will be lost when the 
   8:D:/Infineon/Tools/DAVE IDE/4.5.0.202105191637/eclipse/workspace/XMC4300-app/Dave/Generated/DIGITAL_IO\digital_io.h ****  *
   9:D:/Infineon/Tools/DAVE IDE/4.5.0.202105191637/eclipse/workspace/XMC4300-app/Dave/Generated/DIGITAL_IO\digital_io.h ****  * @cond
  10:D:/Infineon/Tools/DAVE IDE/4.5.0.202105191637/eclipse/workspace/XMC4300-app/Dave/Generated/DIGITAL_IO\digital_io.h ****  **************************************************************************************************
  11:D:/Infineon/Tools/DAVE IDE/4.5.0.202105191637/eclipse/workspace/XMC4300-app/Dave/Generated/DIGITAL_IO\digital_io.h ****  * DIGITAL_IO v4.0.18 - The DIGITAL_IO APP is used to configure a port pin as digital Input/Output.
  12:D:/Infineon/Tools/DAVE IDE/4.5.0.202105191637/eclipse/workspace/XMC4300-app/Dave/Generated/DIGITAL_IO\digital_io.h ****  *
  13:D:/Infineon/Tools/DAVE IDE/4.5.0.202105191637/eclipse/workspace/XMC4300-app/Dave/Generated/DIGITAL_IO\digital_io.h ****  * Copyright (c) 2015-2020, Infineon Technologies AG
  14:D:/Infineon/Tools/DAVE IDE/4.5.0.202105191637/eclipse/workspace/XMC4300-app/Dave/Generated/DIGITAL_IO\digital_io.h ****  * All rights reserved.
  15:D:/Infineon/Tools/DAVE IDE/4.5.0.202105191637/eclipse/workspace/XMC4300-app/Dave/Generated/DIGITAL_IO\digital_io.h ****  *
  16:D:/Infineon/Tools/DAVE IDE/4.5.0.202105191637/eclipse/workspace/XMC4300-app/Dave/Generated/DIGITAL_IO\digital_io.h ****  * Redistribution and use in source and binary forms, with or without modification,are permitted pr
  17:D:/Infineon/Tools/DAVE IDE/4.5.0.202105191637/eclipse/workspace/XMC4300-app/Dave/Generated/DIGITAL_IO\digital_io.h ****  * following conditions are met:
  18:D:/Infineon/Tools/DAVE IDE/4.5.0.202105191637/eclipse/workspace/XMC4300-app/Dave/Generated/DIGITAL_IO\digital_io.h ****  *
  19:D:/Infineon/Tools/DAVE IDE/4.5.0.202105191637/eclipse/workspace/XMC4300-app/Dave/Generated/DIGITAL_IO\digital_io.h ****  *   Redistributions of source code must retain the above copyright notice, this list of conditions
  20:D:/Infineon/Tools/DAVE IDE/4.5.0.202105191637/eclipse/workspace/XMC4300-app/Dave/Generated/DIGITAL_IO\digital_io.h ****  *   disclaimer.
  21:D:/Infineon/Tools/DAVE IDE/4.5.0.202105191637/eclipse/workspace/XMC4300-app/Dave/Generated/DIGITAL_IO\digital_io.h ****  *
  22:D:/Infineon/Tools/DAVE IDE/4.5.0.202105191637/eclipse/workspace/XMC4300-app/Dave/Generated/DIGITAL_IO\digital_io.h ****  *   Redistributions in binary form must reproduce the above copyright notice, this list of conditi
  23:D:/Infineon/Tools/DAVE IDE/4.5.0.202105191637/eclipse/workspace/XMC4300-app/Dave/Generated/DIGITAL_IO\digital_io.h ****  *   following disclaimer in the documentation and/or other materials provided with the distributio
  24:D:/Infineon/Tools/DAVE IDE/4.5.0.202105191637/eclipse/workspace/XMC4300-app/Dave/Generated/DIGITAL_IO\digital_io.h ****  *
  25:D:/Infineon/Tools/DAVE IDE/4.5.0.202105191637/eclipse/workspace/XMC4300-app/Dave/Generated/DIGITAL_IO\digital_io.h ****  *   Neither the name of the copyright holders nor the names of its contributors may be used to end
  26:D:/Infineon/Tools/DAVE IDE/4.5.0.202105191637/eclipse/workspace/XMC4300-app/Dave/Generated/DIGITAL_IO\digital_io.h ****  *   products derived from this software without specific prior written permission.
  27:D:/Infineon/Tools/DAVE IDE/4.5.0.202105191637/eclipse/workspace/XMC4300-app/Dave/Generated/DIGITAL_IO\digital_io.h ****  *
  28:D:/Infineon/Tools/DAVE IDE/4.5.0.202105191637/eclipse/workspace/XMC4300-app/Dave/Generated/DIGITAL_IO\digital_io.h ****  * THIS SOFTWARE IS PROVIDED BY THE COPYRIGHT HOLDERS AND CONTRIBUTORS "AS IS" AND ANY EXPRESS OR I
  29:D:/Infineon/Tools/DAVE IDE/4.5.0.202105191637/eclipse/workspace/XMC4300-app/Dave/Generated/DIGITAL_IO\digital_io.h ****  * INCLUDING, BUT NOT LIMITED TO, THE IMPLIED WARRANTIES OF MERCHANTABILITY AND FITNESS FOR A PARTI
  30:D:/Infineon/Tools/DAVE IDE/4.5.0.202105191637/eclipse/workspace/XMC4300-app/Dave/Generated/DIGITAL_IO\digital_io.h ****  * DISCLAIMED. IN NO EVENT SHALL THE COPYRIGHT HOLDER OR CONTRIBUTORS BE LIABLE  FOR ANY DIRECT, IN
  31:D:/Infineon/Tools/DAVE IDE/4.5.0.202105191637/eclipse/workspace/XMC4300-app/Dave/Generated/DIGITAL_IO\digital_io.h ****  * SPECIAL, EXEMPLARY, OR CONSEQUENTIAL DAMAGES (INCLUDING, BUT NOT LIMITED TO, PROCUREMENT OF SUBS
  32:D:/Infineon/Tools/DAVE IDE/4.5.0.202105191637/eclipse/workspace/XMC4300-app/Dave/Generated/DIGITAL_IO\digital_io.h ****  * SERVICES; LOSS OF USE, DATA, OR PROFITS; OR BUSINESS INTERRUPTION) HOWEVER CAUSED AND ON ANY THE
  33:D:/Infineon/Tools/DAVE IDE/4.5.0.202105191637/eclipse/workspace/XMC4300-app/Dave/Generated/DIGITAL_IO\digital_io.h ****  * WHETHER IN CONTRACT, STRICT LIABILITY,OR TORT (INCLUDING NEGLIGENCE OR OTHERWISE) ARISING IN ANY
  34:D:/Infineon/Tools/DAVE IDE/4.5.0.202105191637/eclipse/workspace/XMC4300-app/Dave/Generated/DIGITAL_IO\digital_io.h ****  * USE OF THIS SOFTWARE, EVEN IF ADVISED OF THE POSSIBILITY OF SUCH DAMAGE.
  35:D:/Infineon/Tools/DAVE IDE/4.5.0.202105191637/eclipse/workspace/XMC4300-app/Dave/Generated/DIGITAL_IO\digital_io.h ****  *
  36:D:/Infineon/Tools/DAVE IDE/4.5.0.202105191637/eclipse/workspace/XMC4300-app/Dave/Generated/DIGITAL_IO\digital_io.h ****  * To improve the quality of the software, users are encouraged to share modifications, enhancement
  37:D:/Infineon/Tools/DAVE IDE/4.5.0.202105191637/eclipse/workspace/XMC4300-app/Dave/Generated/DIGITAL_IO\digital_io.h ****  * with Infineon Technologies AG (dave@infineon.com).
  38:D:/Infineon/Tools/DAVE IDE/4.5.0.202105191637/eclipse/workspace/XMC4300-app/Dave/Generated/DIGITAL_IO\digital_io.h ****  **************************************************************************************************
  39:D:/Infineon/Tools/DAVE IDE/4.5.0.202105191637/eclipse/workspace/XMC4300-app/Dave/Generated/DIGITAL_IO\digital_io.h ****  *
  40:D:/Infineon/Tools/DAVE IDE/4.5.0.202105191637/eclipse/workspace/XMC4300-app/Dave/Generated/DIGITAL_IO\digital_io.h ****  * Change History
  41:D:/Infineon/Tools/DAVE IDE/4.5.0.202105191637/eclipse/workspace/XMC4300-app/Dave/Generated/DIGITAL_IO\digital_io.h ****  * --------------
  42:D:/Infineon/Tools/DAVE IDE/4.5.0.202105191637/eclipse/workspace/XMC4300-app/Dave/Generated/DIGITAL_IO\digital_io.h ****  *
  43:D:/Infineon/Tools/DAVE IDE/4.5.0.202105191637/eclipse/workspace/XMC4300-app/Dave/Generated/DIGITAL_IO\digital_io.h ****  * 2015-02-16
  44:D:/Infineon/Tools/DAVE IDE/4.5.0.202105191637/eclipse/workspace/XMC4300-app/Dave/Generated/DIGITAL_IO\digital_io.h ****  *     - Initial version
  45:D:/Infineon/Tools/DAVE IDE/4.5.0.202105191637/eclipse/workspace/XMC4300-app/Dave/Generated/DIGITAL_IO\digital_io.h ****  *
  46:D:/Infineon/Tools/DAVE IDE/4.5.0.202105191637/eclipse/workspace/XMC4300-app/Dave/Generated/DIGITAL_IO\digital_io.h ****  * 2015-04-22
  47:D:/Infineon/Tools/DAVE IDE/4.5.0.202105191637/eclipse/workspace/XMC4300-app/Dave/Generated/DIGITAL_IO\digital_io.h ****  *     - XMC_ASSERT is added in static inline functions.<br>
  48:D:/Infineon/Tools/DAVE IDE/4.5.0.202105191637/eclipse/workspace/XMC4300-app/Dave/Generated/DIGITAL_IO\digital_io.h ****  *
  49:D:/Infineon/Tools/DAVE IDE/4.5.0.202105191637/eclipse/workspace/XMC4300-app/Dave/Generated/DIGITAL_IO\digital_io.h ****  * 2015-06-20
  50:D:/Infineon/Tools/DAVE IDE/4.5.0.202105191637/eclipse/workspace/XMC4300-app/Dave/Generated/DIGITAL_IO\digital_io.h ****  *     - Version check added for XMCLib dependency.<br>
  51:D:/Infineon/Tools/DAVE IDE/4.5.0.202105191637/eclipse/workspace/XMC4300-app/Dave/Generated/DIGITAL_IO\digital_io.h ****  *
  52:D:/Infineon/Tools/DAVE IDE/4.5.0.202105191637/eclipse/workspace/XMC4300-app/Dave/Generated/DIGITAL_IO\digital_io.h ****  * 2015-12-22
  53:D:/Infineon/Tools/DAVE IDE/4.5.0.202105191637/eclipse/workspace/XMC4300-app/Dave/Generated/DIGITAL_IO\digital_io.h ****  *     - Added hardware controlled IO feature.
  54:D:/Infineon/Tools/DAVE IDE/4.5.0.202105191637/eclipse/workspace/XMC4300-app/Dave/Generated/DIGITAL_IO\digital_io.h ****  * 2016-07-08:
  55:D:/Infineon/Tools/DAVE IDE/4.5.0.202105191637/eclipse/workspace/XMC4300-app/Dave/Generated/DIGITAL_IO\digital_io.h ****  *     - Fixed incorrect case for an included header.<br>
  56:D:/Infineon/Tools/DAVE IDE/4.5.0.202105191637/eclipse/workspace/XMC4300-app/Dave/Generated/DIGITAL_IO\digital_io.h ****  * 2021-01-08:
  57:D:/Infineon/Tools/DAVE IDE/4.5.0.202105191637/eclipse/workspace/XMC4300-app/Dave/Generated/DIGITAL_IO\digital_io.h ****  *     - Modified check for minimum XMCLib version
  58:D:/Infineon/Tools/DAVE IDE/4.5.0.202105191637/eclipse/workspace/XMC4300-app/Dave/Generated/DIGITAL_IO\digital_io.h ****  *
  59:D:/Infineon/Tools/DAVE IDE/4.5.0.202105191637/eclipse/workspace/XMC4300-app/Dave/Generated/DIGITAL_IO\digital_io.h ****  * @endcond
  60:D:/Infineon/Tools/DAVE IDE/4.5.0.202105191637/eclipse/workspace/XMC4300-app/Dave/Generated/DIGITAL_IO\digital_io.h ****  *
  61:D:/Infineon/Tools/DAVE IDE/4.5.0.202105191637/eclipse/workspace/XMC4300-app/Dave/Generated/DIGITAL_IO\digital_io.h ****  */
  62:D:/Infineon/Tools/DAVE IDE/4.5.0.202105191637/eclipse/workspace/XMC4300-app/Dave/Generated/DIGITAL_IO\digital_io.h **** 
  63:D:/Infineon/Tools/DAVE IDE/4.5.0.202105191637/eclipse/workspace/XMC4300-app/Dave/Generated/DIGITAL_IO\digital_io.h **** /**************************************************************************************************
  64:D:/Infineon/Tools/DAVE IDE/4.5.0.202105191637/eclipse/workspace/XMC4300-app/Dave/Generated/DIGITAL_IO\digital_io.h ****  * HEADER FILES
  65:D:/Infineon/Tools/DAVE IDE/4.5.0.202105191637/eclipse/workspace/XMC4300-app/Dave/Generated/DIGITAL_IO\digital_io.h ****  **************************************************************************************************
  66:D:/Infineon/Tools/DAVE IDE/4.5.0.202105191637/eclipse/workspace/XMC4300-app/Dave/Generated/DIGITAL_IO\digital_io.h **** 
  67:D:/Infineon/Tools/DAVE IDE/4.5.0.202105191637/eclipse/workspace/XMC4300-app/Dave/Generated/DIGITAL_IO\digital_io.h **** #ifndef DIGITAL_IO_H
  68:D:/Infineon/Tools/DAVE IDE/4.5.0.202105191637/eclipse/workspace/XMC4300-app/Dave/Generated/DIGITAL_IO\digital_io.h **** #define DIGITAL_IO_H
  69:D:/Infineon/Tools/DAVE IDE/4.5.0.202105191637/eclipse/workspace/XMC4300-app/Dave/Generated/DIGITAL_IO\digital_io.h **** 
  70:D:/Infineon/Tools/DAVE IDE/4.5.0.202105191637/eclipse/workspace/XMC4300-app/Dave/Generated/DIGITAL_IO\digital_io.h **** #include "xmc_gpio.h"
  71:D:/Infineon/Tools/DAVE IDE/4.5.0.202105191637/eclipse/workspace/XMC4300-app/Dave/Generated/DIGITAL_IO\digital_io.h **** #include "DAVE_Common.h"
  72:D:/Infineon/Tools/DAVE IDE/4.5.0.202105191637/eclipse/workspace/XMC4300-app/Dave/Generated/DIGITAL_IO\digital_io.h **** #include "digital_io_conf.h"
  73:D:/Infineon/Tools/DAVE IDE/4.5.0.202105191637/eclipse/workspace/XMC4300-app/Dave/Generated/DIGITAL_IO\digital_io.h **** 
  74:D:/Infineon/Tools/DAVE IDE/4.5.0.202105191637/eclipse/workspace/XMC4300-app/Dave/Generated/DIGITAL_IO\digital_io.h **** /**************************************************************************************************
  75:D:/Infineon/Tools/DAVE IDE/4.5.0.202105191637/eclipse/workspace/XMC4300-app/Dave/Generated/DIGITAL_IO\digital_io.h ****  * MACROS
  76:D:/Infineon/Tools/DAVE IDE/4.5.0.202105191637/eclipse/workspace/XMC4300-app/Dave/Generated/DIGITAL_IO\digital_io.h ****  **************************************************************************************************
  77:D:/Infineon/Tools/DAVE IDE/4.5.0.202105191637/eclipse/workspace/XMC4300-app/Dave/Generated/DIGITAL_IO\digital_io.h **** #define DIGITAL_IO_XMC_LIB_MAJOR_VERSION 2
  78:D:/Infineon/Tools/DAVE IDE/4.5.0.202105191637/eclipse/workspace/XMC4300-app/Dave/Generated/DIGITAL_IO\digital_io.h **** #define DIGITAL_IO_XMC_LIB_MINOR_VERSION 0
  79:D:/Infineon/Tools/DAVE IDE/4.5.0.202105191637/eclipse/workspace/XMC4300-app/Dave/Generated/DIGITAL_IO\digital_io.h **** #define DIGITAL_IO_XMC_LIB_PATCH_VERSION 0
  80:D:/Infineon/Tools/DAVE IDE/4.5.0.202105191637/eclipse/workspace/XMC4300-app/Dave/Generated/DIGITAL_IO\digital_io.h **** 
  81:D:/Infineon/Tools/DAVE IDE/4.5.0.202105191637/eclipse/workspace/XMC4300-app/Dave/Generated/DIGITAL_IO\digital_io.h **** #if !((XMC_LIB_MAJOR_VERSION > DIGITAL_IO_XMC_LIB_MAJOR_VERSION) ||\
  82:D:/Infineon/Tools/DAVE IDE/4.5.0.202105191637/eclipse/workspace/XMC4300-app/Dave/Generated/DIGITAL_IO\digital_io.h ****       ((XMC_LIB_MAJOR_VERSION == DIGITAL_IO_XMC_LIB_MAJOR_VERSION) && (XMC_LIB_MINOR_VERSION > DIGI
  83:D:/Infineon/Tools/DAVE IDE/4.5.0.202105191637/eclipse/workspace/XMC4300-app/Dave/Generated/DIGITAL_IO\digital_io.h ****       ((XMC_LIB_MAJOR_VERSION == DIGITAL_IO_XMC_LIB_MAJOR_VERSION) && (XMC_LIB_MINOR_VERSION == DIG
  84:D:/Infineon/Tools/DAVE IDE/4.5.0.202105191637/eclipse/workspace/XMC4300-app/Dave/Generated/DIGITAL_IO\digital_io.h **** #error "DIGITAL_IO requires XMC Peripheral Library v2.0.0 or higher"
  85:D:/Infineon/Tools/DAVE IDE/4.5.0.202105191637/eclipse/workspace/XMC4300-app/Dave/Generated/DIGITAL_IO\digital_io.h **** #endif
  86:D:/Infineon/Tools/DAVE IDE/4.5.0.202105191637/eclipse/workspace/XMC4300-app/Dave/Generated/DIGITAL_IO\digital_io.h **** 
  87:D:/Infineon/Tools/DAVE IDE/4.5.0.202105191637/eclipse/workspace/XMC4300-app/Dave/Generated/DIGITAL_IO\digital_io.h ****  /*************************************************************************************************
  88:D:/Infineon/Tools/DAVE IDE/4.5.0.202105191637/eclipse/workspace/XMC4300-app/Dave/Generated/DIGITAL_IO\digital_io.h ****  * ENUMS
  89:D:/Infineon/Tools/DAVE IDE/4.5.0.202105191637/eclipse/workspace/XMC4300-app/Dave/Generated/DIGITAL_IO\digital_io.h ****  **************************************************************************************************
  90:D:/Infineon/Tools/DAVE IDE/4.5.0.202105191637/eclipse/workspace/XMC4300-app/Dave/Generated/DIGITAL_IO\digital_io.h **** 
  91:D:/Infineon/Tools/DAVE IDE/4.5.0.202105191637/eclipse/workspace/XMC4300-app/Dave/Generated/DIGITAL_IO\digital_io.h **** /**
  92:D:/Infineon/Tools/DAVE IDE/4.5.0.202105191637/eclipse/workspace/XMC4300-app/Dave/Generated/DIGITAL_IO\digital_io.h **** * @ingroup DIGITAL_IO_enumerations
  93:D:/Infineon/Tools/DAVE IDE/4.5.0.202105191637/eclipse/workspace/XMC4300-app/Dave/Generated/DIGITAL_IO\digital_io.h **** * @{
  94:D:/Infineon/Tools/DAVE IDE/4.5.0.202105191637/eclipse/workspace/XMC4300-app/Dave/Generated/DIGITAL_IO\digital_io.h **** */
  95:D:/Infineon/Tools/DAVE IDE/4.5.0.202105191637/eclipse/workspace/XMC4300-app/Dave/Generated/DIGITAL_IO\digital_io.h **** 
  96:D:/Infineon/Tools/DAVE IDE/4.5.0.202105191637/eclipse/workspace/XMC4300-app/Dave/Generated/DIGITAL_IO\digital_io.h **** /**
  97:D:/Infineon/Tools/DAVE IDE/4.5.0.202105191637/eclipse/workspace/XMC4300-app/Dave/Generated/DIGITAL_IO\digital_io.h **** * @brief Initialization status of DIGITAL_IO APP.
  98:D:/Infineon/Tools/DAVE IDE/4.5.0.202105191637/eclipse/workspace/XMC4300-app/Dave/Generated/DIGITAL_IO\digital_io.h **** */
  99:D:/Infineon/Tools/DAVE IDE/4.5.0.202105191637/eclipse/workspace/XMC4300-app/Dave/Generated/DIGITAL_IO\digital_io.h **** typedef enum DIGITAL_IO_STATUS
 100:D:/Infineon/Tools/DAVE IDE/4.5.0.202105191637/eclipse/workspace/XMC4300-app/Dave/Generated/DIGITAL_IO\digital_io.h **** {
 101:D:/Infineon/Tools/DAVE IDE/4.5.0.202105191637/eclipse/workspace/XMC4300-app/Dave/Generated/DIGITAL_IO\digital_io.h ****   DIGITAL_IO_STATUS_OK = 0U,/**< 0=Status OK */
 102:D:/Infineon/Tools/DAVE IDE/4.5.0.202105191637/eclipse/workspace/XMC4300-app/Dave/Generated/DIGITAL_IO\digital_io.h ****   DIGITAL_IO_STATUS_FAILURE = 1U/**< 1=Status Failed */
 103:D:/Infineon/Tools/DAVE IDE/4.5.0.202105191637/eclipse/workspace/XMC4300-app/Dave/Generated/DIGITAL_IO\digital_io.h **** } DIGITAL_IO_STATUS_t;
 104:D:/Infineon/Tools/DAVE IDE/4.5.0.202105191637/eclipse/workspace/XMC4300-app/Dave/Generated/DIGITAL_IO\digital_io.h **** 
 105:D:/Infineon/Tools/DAVE IDE/4.5.0.202105191637/eclipse/workspace/XMC4300-app/Dave/Generated/DIGITAL_IO\digital_io.h **** /**
 106:D:/Infineon/Tools/DAVE IDE/4.5.0.202105191637/eclipse/workspace/XMC4300-app/Dave/Generated/DIGITAL_IO\digital_io.h **** * @}
 107:D:/Infineon/Tools/DAVE IDE/4.5.0.202105191637/eclipse/workspace/XMC4300-app/Dave/Generated/DIGITAL_IO\digital_io.h **** */
 108:D:/Infineon/Tools/DAVE IDE/4.5.0.202105191637/eclipse/workspace/XMC4300-app/Dave/Generated/DIGITAL_IO\digital_io.h **** 
 109:D:/Infineon/Tools/DAVE IDE/4.5.0.202105191637/eclipse/workspace/XMC4300-app/Dave/Generated/DIGITAL_IO\digital_io.h **** /**************************************************************************************************
 110:D:/Infineon/Tools/DAVE IDE/4.5.0.202105191637/eclipse/workspace/XMC4300-app/Dave/Generated/DIGITAL_IO\digital_io.h ****  * DATA STRUCTURES
 111:D:/Infineon/Tools/DAVE IDE/4.5.0.202105191637/eclipse/workspace/XMC4300-app/Dave/Generated/DIGITAL_IO\digital_io.h ****  **************************************************************************************************
 112:D:/Infineon/Tools/DAVE IDE/4.5.0.202105191637/eclipse/workspace/XMC4300-app/Dave/Generated/DIGITAL_IO\digital_io.h **** /**
 113:D:/Infineon/Tools/DAVE IDE/4.5.0.202105191637/eclipse/workspace/XMC4300-app/Dave/Generated/DIGITAL_IO\digital_io.h **** * @ingroup DIGITAL_IO_datastructures
 114:D:/Infineon/Tools/DAVE IDE/4.5.0.202105191637/eclipse/workspace/XMC4300-app/Dave/Generated/DIGITAL_IO\digital_io.h **** * @{
 115:D:/Infineon/Tools/DAVE IDE/4.5.0.202105191637/eclipse/workspace/XMC4300-app/Dave/Generated/DIGITAL_IO\digital_io.h **** */
 116:D:/Infineon/Tools/DAVE IDE/4.5.0.202105191637/eclipse/workspace/XMC4300-app/Dave/Generated/DIGITAL_IO\digital_io.h **** 
 117:D:/Infineon/Tools/DAVE IDE/4.5.0.202105191637/eclipse/workspace/XMC4300-app/Dave/Generated/DIGITAL_IO\digital_io.h **** /**
 118:D:/Infineon/Tools/DAVE IDE/4.5.0.202105191637/eclipse/workspace/XMC4300-app/Dave/Generated/DIGITAL_IO\digital_io.h **** * @brief Initialization data structure of DIGITAL_IO APP
 119:D:/Infineon/Tools/DAVE IDE/4.5.0.202105191637/eclipse/workspace/XMC4300-app/Dave/Generated/DIGITAL_IO\digital_io.h **** */
 120:D:/Infineon/Tools/DAVE IDE/4.5.0.202105191637/eclipse/workspace/XMC4300-app/Dave/Generated/DIGITAL_IO\digital_io.h **** typedef struct DIGITAL_IO
 121:D:/Infineon/Tools/DAVE IDE/4.5.0.202105191637/eclipse/workspace/XMC4300-app/Dave/Generated/DIGITAL_IO\digital_io.h **** {
 122:D:/Infineon/Tools/DAVE IDE/4.5.0.202105191637/eclipse/workspace/XMC4300-app/Dave/Generated/DIGITAL_IO\digital_io.h ****   XMC_GPIO_PORT_t *const gpio_port;             /**< port number */
 123:D:/Infineon/Tools/DAVE IDE/4.5.0.202105191637/eclipse/workspace/XMC4300-app/Dave/Generated/DIGITAL_IO\digital_io.h ****   const XMC_GPIO_CONFIG_t gpio_config;          /**< mode, initial output level and pad driver stre
 124:D:/Infineon/Tools/DAVE IDE/4.5.0.202105191637/eclipse/workspace/XMC4300-app/Dave/Generated/DIGITAL_IO\digital_io.h ****   const uint8_t gpio_pin;                       /**< pin number */
 125:D:/Infineon/Tools/DAVE IDE/4.5.0.202105191637/eclipse/workspace/XMC4300-app/Dave/Generated/DIGITAL_IO\digital_io.h ****   const XMC_GPIO_HWCTRL_t hwctrl;               /**< Hardware port control */
 126:D:/Infineon/Tools/DAVE IDE/4.5.0.202105191637/eclipse/workspace/XMC4300-app/Dave/Generated/DIGITAL_IO\digital_io.h **** } DIGITAL_IO_t;
 127:D:/Infineon/Tools/DAVE IDE/4.5.0.202105191637/eclipse/workspace/XMC4300-app/Dave/Generated/DIGITAL_IO\digital_io.h **** 
 128:D:/Infineon/Tools/DAVE IDE/4.5.0.202105191637/eclipse/workspace/XMC4300-app/Dave/Generated/DIGITAL_IO\digital_io.h **** 
 129:D:/Infineon/Tools/DAVE IDE/4.5.0.202105191637/eclipse/workspace/XMC4300-app/Dave/Generated/DIGITAL_IO\digital_io.h **** /**
 130:D:/Infineon/Tools/DAVE IDE/4.5.0.202105191637/eclipse/workspace/XMC4300-app/Dave/Generated/DIGITAL_IO\digital_io.h **** * @}
 131:D:/Infineon/Tools/DAVE IDE/4.5.0.202105191637/eclipse/workspace/XMC4300-app/Dave/Generated/DIGITAL_IO\digital_io.h **** */
 132:D:/Infineon/Tools/DAVE IDE/4.5.0.202105191637/eclipse/workspace/XMC4300-app/Dave/Generated/DIGITAL_IO\digital_io.h **** 
 133:D:/Infineon/Tools/DAVE IDE/4.5.0.202105191637/eclipse/workspace/XMC4300-app/Dave/Generated/DIGITAL_IO\digital_io.h **** 
 134:D:/Infineon/Tools/DAVE IDE/4.5.0.202105191637/eclipse/workspace/XMC4300-app/Dave/Generated/DIGITAL_IO\digital_io.h **** /**************************************************************************************************
 135:D:/Infineon/Tools/DAVE IDE/4.5.0.202105191637/eclipse/workspace/XMC4300-app/Dave/Generated/DIGITAL_IO\digital_io.h ****  * API Prototypes
 136:D:/Infineon/Tools/DAVE IDE/4.5.0.202105191637/eclipse/workspace/XMC4300-app/Dave/Generated/DIGITAL_IO\digital_io.h ****  **************************************************************************************************
 137:D:/Infineon/Tools/DAVE IDE/4.5.0.202105191637/eclipse/workspace/XMC4300-app/Dave/Generated/DIGITAL_IO\digital_io.h **** 
 138:D:/Infineon/Tools/DAVE IDE/4.5.0.202105191637/eclipse/workspace/XMC4300-app/Dave/Generated/DIGITAL_IO\digital_io.h **** 
 139:D:/Infineon/Tools/DAVE IDE/4.5.0.202105191637/eclipse/workspace/XMC4300-app/Dave/Generated/DIGITAL_IO\digital_io.h **** #ifdef __cplusplus
 140:D:/Infineon/Tools/DAVE IDE/4.5.0.202105191637/eclipse/workspace/XMC4300-app/Dave/Generated/DIGITAL_IO\digital_io.h **** extern "C" {
 141:D:/Infineon/Tools/DAVE IDE/4.5.0.202105191637/eclipse/workspace/XMC4300-app/Dave/Generated/DIGITAL_IO\digital_io.h **** #endif
 142:D:/Infineon/Tools/DAVE IDE/4.5.0.202105191637/eclipse/workspace/XMC4300-app/Dave/Generated/DIGITAL_IO\digital_io.h **** 
 143:D:/Infineon/Tools/DAVE IDE/4.5.0.202105191637/eclipse/workspace/XMC4300-app/Dave/Generated/DIGITAL_IO\digital_io.h **** /**
 144:D:/Infineon/Tools/DAVE IDE/4.5.0.202105191637/eclipse/workspace/XMC4300-app/Dave/Generated/DIGITAL_IO\digital_io.h **** * @ingroup DIGITAL_IO_apidoc
 145:D:/Infineon/Tools/DAVE IDE/4.5.0.202105191637/eclipse/workspace/XMC4300-app/Dave/Generated/DIGITAL_IO\digital_io.h **** * @{
 146:D:/Infineon/Tools/DAVE IDE/4.5.0.202105191637/eclipse/workspace/XMC4300-app/Dave/Generated/DIGITAL_IO\digital_io.h **** */
 147:D:/Infineon/Tools/DAVE IDE/4.5.0.202105191637/eclipse/workspace/XMC4300-app/Dave/Generated/DIGITAL_IO\digital_io.h **** 
 148:D:/Infineon/Tools/DAVE IDE/4.5.0.202105191637/eclipse/workspace/XMC4300-app/Dave/Generated/DIGITAL_IO\digital_io.h **** 
 149:D:/Infineon/Tools/DAVE IDE/4.5.0.202105191637/eclipse/workspace/XMC4300-app/Dave/Generated/DIGITAL_IO\digital_io.h **** 
 150:D:/Infineon/Tools/DAVE IDE/4.5.0.202105191637/eclipse/workspace/XMC4300-app/Dave/Generated/DIGITAL_IO\digital_io.h **** /**
 151:D:/Infineon/Tools/DAVE IDE/4.5.0.202105191637/eclipse/workspace/XMC4300-app/Dave/Generated/DIGITAL_IO\digital_io.h **** * @brief Get DIGITAL_IO APP version
 152:D:/Infineon/Tools/DAVE IDE/4.5.0.202105191637/eclipse/workspace/XMC4300-app/Dave/Generated/DIGITAL_IO\digital_io.h **** * @return DAVE_APP_VERSION_t APP version information (major, minor and patch number)
 153:D:/Infineon/Tools/DAVE IDE/4.5.0.202105191637/eclipse/workspace/XMC4300-app/Dave/Generated/DIGITAL_IO\digital_io.h **** *
 154:D:/Infineon/Tools/DAVE IDE/4.5.0.202105191637/eclipse/workspace/XMC4300-app/Dave/Generated/DIGITAL_IO\digital_io.h **** * \par<b>Description: </b><br>
 155:D:/Infineon/Tools/DAVE IDE/4.5.0.202105191637/eclipse/workspace/XMC4300-app/Dave/Generated/DIGITAL_IO\digital_io.h **** * The function can be used to check application software compatibility with a
 156:D:/Infineon/Tools/DAVE IDE/4.5.0.202105191637/eclipse/workspace/XMC4300-app/Dave/Generated/DIGITAL_IO\digital_io.h **** * specific version of the APP.
 157:D:/Infineon/Tools/DAVE IDE/4.5.0.202105191637/eclipse/workspace/XMC4300-app/Dave/Generated/DIGITAL_IO\digital_io.h **** *
 158:D:/Infineon/Tools/DAVE IDE/4.5.0.202105191637/eclipse/workspace/XMC4300-app/Dave/Generated/DIGITAL_IO\digital_io.h **** * Example Usage:
 159:D:/Infineon/Tools/DAVE IDE/4.5.0.202105191637/eclipse/workspace/XMC4300-app/Dave/Generated/DIGITAL_IO\digital_io.h **** *
 160:D:/Infineon/Tools/DAVE IDE/4.5.0.202105191637/eclipse/workspace/XMC4300-app/Dave/Generated/DIGITAL_IO\digital_io.h **** * @code
 161:D:/Infineon/Tools/DAVE IDE/4.5.0.202105191637/eclipse/workspace/XMC4300-app/Dave/Generated/DIGITAL_IO\digital_io.h **** * #include "DAVE.h"
 162:D:/Infineon/Tools/DAVE IDE/4.5.0.202105191637/eclipse/workspace/XMC4300-app/Dave/Generated/DIGITAL_IO\digital_io.h **** *
 163:D:/Infineon/Tools/DAVE IDE/4.5.0.202105191637/eclipse/workspace/XMC4300-app/Dave/Generated/DIGITAL_IO\digital_io.h **** * int main(void)
 164:D:/Infineon/Tools/DAVE IDE/4.5.0.202105191637/eclipse/workspace/XMC4300-app/Dave/Generated/DIGITAL_IO\digital_io.h **** * {
 165:D:/Infineon/Tools/DAVE IDE/4.5.0.202105191637/eclipse/workspace/XMC4300-app/Dave/Generated/DIGITAL_IO\digital_io.h **** *   DAVE_STATUS_t init_status;
 166:D:/Infineon/Tools/DAVE IDE/4.5.0.202105191637/eclipse/workspace/XMC4300-app/Dave/Generated/DIGITAL_IO\digital_io.h **** *   DAVE_APP_VERSION_t version;
 167:D:/Infineon/Tools/DAVE IDE/4.5.0.202105191637/eclipse/workspace/XMC4300-app/Dave/Generated/DIGITAL_IO\digital_io.h **** *
 168:D:/Infineon/Tools/DAVE IDE/4.5.0.202105191637/eclipse/workspace/XMC4300-app/Dave/Generated/DIGITAL_IO\digital_io.h **** *   // Initialize DIGITAL_IO APP:
 169:D:/Infineon/Tools/DAVE IDE/4.5.0.202105191637/eclipse/workspace/XMC4300-app/Dave/Generated/DIGITAL_IO\digital_io.h **** *   // DIGITAL_IO_Init() is called from within DAVE_Init().
 170:D:/Infineon/Tools/DAVE IDE/4.5.0.202105191637/eclipse/workspace/XMC4300-app/Dave/Generated/DIGITAL_IO\digital_io.h **** *   init_status = DAVE_Init();
 171:D:/Infineon/Tools/DAVE IDE/4.5.0.202105191637/eclipse/workspace/XMC4300-app/Dave/Generated/DIGITAL_IO\digital_io.h **** *   if(init_status == DAVE_STATUS_SUCCESS)
 172:D:/Infineon/Tools/DAVE IDE/4.5.0.202105191637/eclipse/workspace/XMC4300-app/Dave/Generated/DIGITAL_IO\digital_io.h **** *   {
 173:D:/Infineon/Tools/DAVE IDE/4.5.0.202105191637/eclipse/workspace/XMC4300-app/Dave/Generated/DIGITAL_IO\digital_io.h **** *     version = DIGITAL_IO_GetAppVersion();
 174:D:/Infineon/Tools/DAVE IDE/4.5.0.202105191637/eclipse/workspace/XMC4300-app/Dave/Generated/DIGITAL_IO\digital_io.h **** *     if (version.major != 4U) {
 175:D:/Infineon/Tools/DAVE IDE/4.5.0.202105191637/eclipse/workspace/XMC4300-app/Dave/Generated/DIGITAL_IO\digital_io.h **** *     // Probably, not the right version.
 176:D:/Infineon/Tools/DAVE IDE/4.5.0.202105191637/eclipse/workspace/XMC4300-app/Dave/Generated/DIGITAL_IO\digital_io.h **** *     }
 177:D:/Infineon/Tools/DAVE IDE/4.5.0.202105191637/eclipse/workspace/XMC4300-app/Dave/Generated/DIGITAL_IO\digital_io.h **** *   }
 178:D:/Infineon/Tools/DAVE IDE/4.5.0.202105191637/eclipse/workspace/XMC4300-app/Dave/Generated/DIGITAL_IO\digital_io.h **** *
 179:D:/Infineon/Tools/DAVE IDE/4.5.0.202105191637/eclipse/workspace/XMC4300-app/Dave/Generated/DIGITAL_IO\digital_io.h **** *     // More code here
 180:D:/Infineon/Tools/DAVE IDE/4.5.0.202105191637/eclipse/workspace/XMC4300-app/Dave/Generated/DIGITAL_IO\digital_io.h **** *     while(1) {
 181:D:/Infineon/Tools/DAVE IDE/4.5.0.202105191637/eclipse/workspace/XMC4300-app/Dave/Generated/DIGITAL_IO\digital_io.h **** *
 182:D:/Infineon/Tools/DAVE IDE/4.5.0.202105191637/eclipse/workspace/XMC4300-app/Dave/Generated/DIGITAL_IO\digital_io.h **** *     }
 183:D:/Infineon/Tools/DAVE IDE/4.5.0.202105191637/eclipse/workspace/XMC4300-app/Dave/Generated/DIGITAL_IO\digital_io.h **** *     return (1);
 184:D:/Infineon/Tools/DAVE IDE/4.5.0.202105191637/eclipse/workspace/XMC4300-app/Dave/Generated/DIGITAL_IO\digital_io.h **** *  }
 185:D:/Infineon/Tools/DAVE IDE/4.5.0.202105191637/eclipse/workspace/XMC4300-app/Dave/Generated/DIGITAL_IO\digital_io.h **** * @endcode<BR>
 186:D:/Infineon/Tools/DAVE IDE/4.5.0.202105191637/eclipse/workspace/XMC4300-app/Dave/Generated/DIGITAL_IO\digital_io.h **** */
 187:D:/Infineon/Tools/DAVE IDE/4.5.0.202105191637/eclipse/workspace/XMC4300-app/Dave/Generated/DIGITAL_IO\digital_io.h **** 
 188:D:/Infineon/Tools/DAVE IDE/4.5.0.202105191637/eclipse/workspace/XMC4300-app/Dave/Generated/DIGITAL_IO\digital_io.h **** DAVE_APP_VERSION_t DIGITAL_IO_GetAppVersion(void);
 189:D:/Infineon/Tools/DAVE IDE/4.5.0.202105191637/eclipse/workspace/XMC4300-app/Dave/Generated/DIGITAL_IO\digital_io.h **** 
 190:D:/Infineon/Tools/DAVE IDE/4.5.0.202105191637/eclipse/workspace/XMC4300-app/Dave/Generated/DIGITAL_IO\digital_io.h **** /**
 191:D:/Infineon/Tools/DAVE IDE/4.5.0.202105191637/eclipse/workspace/XMC4300-app/Dave/Generated/DIGITAL_IO\digital_io.h **** *
 192:D:/Infineon/Tools/DAVE IDE/4.5.0.202105191637/eclipse/workspace/XMC4300-app/Dave/Generated/DIGITAL_IO\digital_io.h **** * @brief Function to initialize the port pin as per UI settings.
 193:D:/Infineon/Tools/DAVE IDE/4.5.0.202105191637/eclipse/workspace/XMC4300-app/Dave/Generated/DIGITAL_IO\digital_io.h **** * @param handler Pointer pointing to APP data structure. Refer @ref DIGITAL_IO_t for details.
 194:D:/Infineon/Tools/DAVE IDE/4.5.0.202105191637/eclipse/workspace/XMC4300-app/Dave/Generated/DIGITAL_IO\digital_io.h **** * @return DIGITAL_IO_STATUS_t DIGITAL_IO APP status. Refer @ref DIGITAL_IO_STATUS_t structure for d
 195:D:/Infineon/Tools/DAVE IDE/4.5.0.202105191637/eclipse/workspace/XMC4300-app/Dave/Generated/DIGITAL_IO\digital_io.h **** *
 196:D:/Infineon/Tools/DAVE IDE/4.5.0.202105191637/eclipse/workspace/XMC4300-app/Dave/Generated/DIGITAL_IO\digital_io.h **** * \par<b>Description:</b><br>
 197:D:/Infineon/Tools/DAVE IDE/4.5.0.202105191637/eclipse/workspace/XMC4300-app/Dave/Generated/DIGITAL_IO\digital_io.h **** * This function initializes GPIO port registers IOCR,PDISC,OMR,PDR/PHCR to configure pin direction,
 198:D:/Infineon/Tools/DAVE IDE/4.5.0.202105191637/eclipse/workspace/XMC4300-app/Dave/Generated/DIGITAL_IO\digital_io.h **** * and pad driver strength/hysteresis.
 199:D:/Infineon/Tools/DAVE IDE/4.5.0.202105191637/eclipse/workspace/XMC4300-app/Dave/Generated/DIGITAL_IO\digital_io.h **** *
 200:D:/Infineon/Tools/DAVE IDE/4.5.0.202105191637/eclipse/workspace/XMC4300-app/Dave/Generated/DIGITAL_IO\digital_io.h **** * \par<b>Related APIs:</b><BR>
 201:D:/Infineon/Tools/DAVE IDE/4.5.0.202105191637/eclipse/workspace/XMC4300-app/Dave/Generated/DIGITAL_IO\digital_io.h **** * None
 202:D:/Infineon/Tools/DAVE IDE/4.5.0.202105191637/eclipse/workspace/XMC4300-app/Dave/Generated/DIGITAL_IO\digital_io.h **** *
 203:D:/Infineon/Tools/DAVE IDE/4.5.0.202105191637/eclipse/workspace/XMC4300-app/Dave/Generated/DIGITAL_IO\digital_io.h **** * Example Usage:
 204:D:/Infineon/Tools/DAVE IDE/4.5.0.202105191637/eclipse/workspace/XMC4300-app/Dave/Generated/DIGITAL_IO\digital_io.h **** * @code
 205:D:/Infineon/Tools/DAVE IDE/4.5.0.202105191637/eclipse/workspace/XMC4300-app/Dave/Generated/DIGITAL_IO\digital_io.h **** * #include "DAVE.h" //Declarations from DAVE Code Generation (includes SFR declaration)
 206:D:/Infineon/Tools/DAVE IDE/4.5.0.202105191637/eclipse/workspace/XMC4300-app/Dave/Generated/DIGITAL_IO\digital_io.h **** *
 207:D:/Infineon/Tools/DAVE IDE/4.5.0.202105191637/eclipse/workspace/XMC4300-app/Dave/Generated/DIGITAL_IO\digital_io.h **** * int main(void)
 208:D:/Infineon/Tools/DAVE IDE/4.5.0.202105191637/eclipse/workspace/XMC4300-app/Dave/Generated/DIGITAL_IO\digital_io.h **** * {
 209:D:/Infineon/Tools/DAVE IDE/4.5.0.202105191637/eclipse/workspace/XMC4300-app/Dave/Generated/DIGITAL_IO\digital_io.h **** *   DAVE_STATUS_t status;
 210:D:/Infineon/Tools/DAVE IDE/4.5.0.202105191637/eclipse/workspace/XMC4300-app/Dave/Generated/DIGITAL_IO\digital_io.h **** *   status = DAVE_Init();  //(DAVE_STATUS_t)DIGITAL_IO_Init(&DIGITAL_IO_0) is called within DAVE_In
 211:D:/Infineon/Tools/DAVE IDE/4.5.0.202105191637/eclipse/workspace/XMC4300-app/Dave/Generated/DIGITAL_IO\digital_io.h **** *   if(status == DAVE_STATUS_SUCCESS)
 212:D:/Infineon/Tools/DAVE IDE/4.5.0.202105191637/eclipse/workspace/XMC4300-app/Dave/Generated/DIGITAL_IO\digital_io.h **** *   {
 213:D:/Infineon/Tools/DAVE IDE/4.5.0.202105191637/eclipse/workspace/XMC4300-app/Dave/Generated/DIGITAL_IO\digital_io.h **** *     XMC_DEBUG("DAVE Apps initialization success\n");
 214:D:/Infineon/Tools/DAVE IDE/4.5.0.202105191637/eclipse/workspace/XMC4300-app/Dave/Generated/DIGITAL_IO\digital_io.h **** *   }
 215:D:/Infineon/Tools/DAVE IDE/4.5.0.202105191637/eclipse/workspace/XMC4300-app/Dave/Generated/DIGITAL_IO\digital_io.h **** *   else
 216:D:/Infineon/Tools/DAVE IDE/4.5.0.202105191637/eclipse/workspace/XMC4300-app/Dave/Generated/DIGITAL_IO\digital_io.h **** *   {
 217:D:/Infineon/Tools/DAVE IDE/4.5.0.202105191637/eclipse/workspace/XMC4300-app/Dave/Generated/DIGITAL_IO\digital_io.h **** *     XMC_DEBUG(("DAVE Apps initialization failed with status %d\n", status));
 218:D:/Infineon/Tools/DAVE IDE/4.5.0.202105191637/eclipse/workspace/XMC4300-app/Dave/Generated/DIGITAL_IO\digital_io.h **** *     while(1U)
 219:D:/Infineon/Tools/DAVE IDE/4.5.0.202105191637/eclipse/workspace/XMC4300-app/Dave/Generated/DIGITAL_IO\digital_io.h **** *     {
 220:D:/Infineon/Tools/DAVE IDE/4.5.0.202105191637/eclipse/workspace/XMC4300-app/Dave/Generated/DIGITAL_IO\digital_io.h **** *     }
 221:D:/Infineon/Tools/DAVE IDE/4.5.0.202105191637/eclipse/workspace/XMC4300-app/Dave/Generated/DIGITAL_IO\digital_io.h **** *   }
 222:D:/Infineon/Tools/DAVE IDE/4.5.0.202105191637/eclipse/workspace/XMC4300-app/Dave/Generated/DIGITAL_IO\digital_io.h **** *   //Placeholder for user application code. The while loop below can be replaced with user applica
 223:D:/Infineon/Tools/DAVE IDE/4.5.0.202105191637/eclipse/workspace/XMC4300-app/Dave/Generated/DIGITAL_IO\digital_io.h **** *   while(1U)
 224:D:/Infineon/Tools/DAVE IDE/4.5.0.202105191637/eclipse/workspace/XMC4300-app/Dave/Generated/DIGITAL_IO\digital_io.h **** *   {
 225:D:/Infineon/Tools/DAVE IDE/4.5.0.202105191637/eclipse/workspace/XMC4300-app/Dave/Generated/DIGITAL_IO\digital_io.h **** *   }
 226:D:/Infineon/Tools/DAVE IDE/4.5.0.202105191637/eclipse/workspace/XMC4300-app/Dave/Generated/DIGITAL_IO\digital_io.h **** *   return 1U;
 227:D:/Infineon/Tools/DAVE IDE/4.5.0.202105191637/eclipse/workspace/XMC4300-app/Dave/Generated/DIGITAL_IO\digital_io.h **** *  }
 228:D:/Infineon/Tools/DAVE IDE/4.5.0.202105191637/eclipse/workspace/XMC4300-app/Dave/Generated/DIGITAL_IO\digital_io.h **** *  @endcode
 229:D:/Infineon/Tools/DAVE IDE/4.5.0.202105191637/eclipse/workspace/XMC4300-app/Dave/Generated/DIGITAL_IO\digital_io.h **** */
 230:D:/Infineon/Tools/DAVE IDE/4.5.0.202105191637/eclipse/workspace/XMC4300-app/Dave/Generated/DIGITAL_IO\digital_io.h **** 
 231:D:/Infineon/Tools/DAVE IDE/4.5.0.202105191637/eclipse/workspace/XMC4300-app/Dave/Generated/DIGITAL_IO\digital_io.h **** DIGITAL_IO_STATUS_t DIGITAL_IO_Init(const DIGITAL_IO_t *const handler);
 232:D:/Infineon/Tools/DAVE IDE/4.5.0.202105191637/eclipse/workspace/XMC4300-app/Dave/Generated/DIGITAL_IO\digital_io.h **** 
 233:D:/Infineon/Tools/DAVE IDE/4.5.0.202105191637/eclipse/workspace/XMC4300-app/Dave/Generated/DIGITAL_IO\digital_io.h **** /**
 234:D:/Infineon/Tools/DAVE IDE/4.5.0.202105191637/eclipse/workspace/XMC4300-app/Dave/Generated/DIGITAL_IO\digital_io.h **** *
 235:D:/Infineon/Tools/DAVE IDE/4.5.0.202105191637/eclipse/workspace/XMC4300-app/Dave/Generated/DIGITAL_IO\digital_io.h **** * @brief Function to set port pin high.
 236:D:/Infineon/Tools/DAVE IDE/4.5.0.202105191637/eclipse/workspace/XMC4300-app/Dave/Generated/DIGITAL_IO\digital_io.h **** * @param handler Pointer pointing to APP data structure. Refer @ref DIGITAL_IO_t for details.
 237:D:/Infineon/Tools/DAVE IDE/4.5.0.202105191637/eclipse/workspace/XMC4300-app/Dave/Generated/DIGITAL_IO\digital_io.h **** * @return None
 238:D:/Infineon/Tools/DAVE IDE/4.5.0.202105191637/eclipse/workspace/XMC4300-app/Dave/Generated/DIGITAL_IO\digital_io.h **** *
 239:D:/Infineon/Tools/DAVE IDE/4.5.0.202105191637/eclipse/workspace/XMC4300-app/Dave/Generated/DIGITAL_IO\digital_io.h **** * \par<b>Description:</b><br>
 240:D:/Infineon/Tools/DAVE IDE/4.5.0.202105191637/eclipse/workspace/XMC4300-app/Dave/Generated/DIGITAL_IO\digital_io.h **** * This function configures port output modification register Pn_OMR, to make port pin to high level
 241:D:/Infineon/Tools/DAVE IDE/4.5.0.202105191637/eclipse/workspace/XMC4300-app/Dave/Generated/DIGITAL_IO\digital_io.h **** *
 242:D:/Infineon/Tools/DAVE IDE/4.5.0.202105191637/eclipse/workspace/XMC4300-app/Dave/Generated/DIGITAL_IO\digital_io.h **** * \par<b>Related APIs:</b><BR>
 243:D:/Infineon/Tools/DAVE IDE/4.5.0.202105191637/eclipse/workspace/XMC4300-app/Dave/Generated/DIGITAL_IO\digital_io.h **** *  DIGITAL_IO_SetOutputLow()
 244:D:/Infineon/Tools/DAVE IDE/4.5.0.202105191637/eclipse/workspace/XMC4300-app/Dave/Generated/DIGITAL_IO\digital_io.h **** *
 245:D:/Infineon/Tools/DAVE IDE/4.5.0.202105191637/eclipse/workspace/XMC4300-app/Dave/Generated/DIGITAL_IO\digital_io.h **** * Example Usage:
 246:D:/Infineon/Tools/DAVE IDE/4.5.0.202105191637/eclipse/workspace/XMC4300-app/Dave/Generated/DIGITAL_IO\digital_io.h **** * @code
 247:D:/Infineon/Tools/DAVE IDE/4.5.0.202105191637/eclipse/workspace/XMC4300-app/Dave/Generated/DIGITAL_IO\digital_io.h **** * #include "DAVE.h" //Declarations from DAVE Code Generation (includes SFR declaration)
 248:D:/Infineon/Tools/DAVE IDE/4.5.0.202105191637/eclipse/workspace/XMC4300-app/Dave/Generated/DIGITAL_IO\digital_io.h **** *
 249:D:/Infineon/Tools/DAVE IDE/4.5.0.202105191637/eclipse/workspace/XMC4300-app/Dave/Generated/DIGITAL_IO\digital_io.h **** * int main(void)
 250:D:/Infineon/Tools/DAVE IDE/4.5.0.202105191637/eclipse/workspace/XMC4300-app/Dave/Generated/DIGITAL_IO\digital_io.h **** * {
 251:D:/Infineon/Tools/DAVE IDE/4.5.0.202105191637/eclipse/workspace/XMC4300-app/Dave/Generated/DIGITAL_IO\digital_io.h **** *   DAVE_STATUS_t status;
 252:D:/Infineon/Tools/DAVE IDE/4.5.0.202105191637/eclipse/workspace/XMC4300-app/Dave/Generated/DIGITAL_IO\digital_io.h **** *   status = DAVE_Init();  //(DAVE_STATUS_t)DIGITAL_IO_Init(&DIGITAL_IO_0) is called within DAVE_In
 253:D:/Infineon/Tools/DAVE IDE/4.5.0.202105191637/eclipse/workspace/XMC4300-app/Dave/Generated/DIGITAL_IO\digital_io.h **** *   if(status == DAVE_STATUS_SUCCESS)
 254:D:/Infineon/Tools/DAVE IDE/4.5.0.202105191637/eclipse/workspace/XMC4300-app/Dave/Generated/DIGITAL_IO\digital_io.h **** *   {
 255:D:/Infineon/Tools/DAVE IDE/4.5.0.202105191637/eclipse/workspace/XMC4300-app/Dave/Generated/DIGITAL_IO\digital_io.h **** *     XMC_DEBUG("DAVE Apps initialization success\n");
 256:D:/Infineon/Tools/DAVE IDE/4.5.0.202105191637/eclipse/workspace/XMC4300-app/Dave/Generated/DIGITAL_IO\digital_io.h **** *   }
 257:D:/Infineon/Tools/DAVE IDE/4.5.0.202105191637/eclipse/workspace/XMC4300-app/Dave/Generated/DIGITAL_IO\digital_io.h **** *   else
 258:D:/Infineon/Tools/DAVE IDE/4.5.0.202105191637/eclipse/workspace/XMC4300-app/Dave/Generated/DIGITAL_IO\digital_io.h **** *   {
 259:D:/Infineon/Tools/DAVE IDE/4.5.0.202105191637/eclipse/workspace/XMC4300-app/Dave/Generated/DIGITAL_IO\digital_io.h **** *     XMC_DEBUG(("DAVE Apps initialization failed with status %d\n", status));
 260:D:/Infineon/Tools/DAVE IDE/4.5.0.202105191637/eclipse/workspace/XMC4300-app/Dave/Generated/DIGITAL_IO\digital_io.h **** *     while(1U)
 261:D:/Infineon/Tools/DAVE IDE/4.5.0.202105191637/eclipse/workspace/XMC4300-app/Dave/Generated/DIGITAL_IO\digital_io.h **** *     {
 262:D:/Infineon/Tools/DAVE IDE/4.5.0.202105191637/eclipse/workspace/XMC4300-app/Dave/Generated/DIGITAL_IO\digital_io.h **** *     }
 263:D:/Infineon/Tools/DAVE IDE/4.5.0.202105191637/eclipse/workspace/XMC4300-app/Dave/Generated/DIGITAL_IO\digital_io.h **** *   }
 264:D:/Infineon/Tools/DAVE IDE/4.5.0.202105191637/eclipse/workspace/XMC4300-app/Dave/Generated/DIGITAL_IO\digital_io.h **** *   //Placeholder for user application code. The while loop below can be replaced with user applica
 265:D:/Infineon/Tools/DAVE IDE/4.5.0.202105191637/eclipse/workspace/XMC4300-app/Dave/Generated/DIGITAL_IO\digital_io.h **** *   DIGITAL_IO_SetOutputHigh(&DIGITAL_IO_0);
 266:D:/Infineon/Tools/DAVE IDE/4.5.0.202105191637/eclipse/workspace/XMC4300-app/Dave/Generated/DIGITAL_IO\digital_io.h **** *   while(1U)
 267:D:/Infineon/Tools/DAVE IDE/4.5.0.202105191637/eclipse/workspace/XMC4300-app/Dave/Generated/DIGITAL_IO\digital_io.h **** *   {
 268:D:/Infineon/Tools/DAVE IDE/4.5.0.202105191637/eclipse/workspace/XMC4300-app/Dave/Generated/DIGITAL_IO\digital_io.h **** *     // Add application code here
 269:D:/Infineon/Tools/DAVE IDE/4.5.0.202105191637/eclipse/workspace/XMC4300-app/Dave/Generated/DIGITAL_IO\digital_io.h **** *   }
 270:D:/Infineon/Tools/DAVE IDE/4.5.0.202105191637/eclipse/workspace/XMC4300-app/Dave/Generated/DIGITAL_IO\digital_io.h **** *
 271:D:/Infineon/Tools/DAVE IDE/4.5.0.202105191637/eclipse/workspace/XMC4300-app/Dave/Generated/DIGITAL_IO\digital_io.h **** *   return (1);
 272:D:/Infineon/Tools/DAVE IDE/4.5.0.202105191637/eclipse/workspace/XMC4300-app/Dave/Generated/DIGITAL_IO\digital_io.h **** * }
 273:D:/Infineon/Tools/DAVE IDE/4.5.0.202105191637/eclipse/workspace/XMC4300-app/Dave/Generated/DIGITAL_IO\digital_io.h **** *  @endcode
 274:D:/Infineon/Tools/DAVE IDE/4.5.0.202105191637/eclipse/workspace/XMC4300-app/Dave/Generated/DIGITAL_IO\digital_io.h **** */
 275:D:/Infineon/Tools/DAVE IDE/4.5.0.202105191637/eclipse/workspace/XMC4300-app/Dave/Generated/DIGITAL_IO\digital_io.h **** 
 276:D:/Infineon/Tools/DAVE IDE/4.5.0.202105191637/eclipse/workspace/XMC4300-app/Dave/Generated/DIGITAL_IO\digital_io.h **** __STATIC_INLINE void DIGITAL_IO_SetOutputHigh(const DIGITAL_IO_t *const handler)
 277:D:/Infineon/Tools/DAVE IDE/4.5.0.202105191637/eclipse/workspace/XMC4300-app/Dave/Generated/DIGITAL_IO\digital_io.h **** {
 278:D:/Infineon/Tools/DAVE IDE/4.5.0.202105191637/eclipse/workspace/XMC4300-app/Dave/Generated/DIGITAL_IO\digital_io.h ****   XMC_ASSERT("DIGITAL_IO_SetOutputHigh: handler null pointer", handler != NULL);
 279:D:/Infineon/Tools/DAVE IDE/4.5.0.202105191637/eclipse/workspace/XMC4300-app/Dave/Generated/DIGITAL_IO\digital_io.h ****   XMC_GPIO_SetOutputHigh(handler->gpio_port, handler->gpio_pin);
 280:D:/Infineon/Tools/DAVE IDE/4.5.0.202105191637/eclipse/workspace/XMC4300-app/Dave/Generated/DIGITAL_IO\digital_io.h **** }
 281:D:/Infineon/Tools/DAVE IDE/4.5.0.202105191637/eclipse/workspace/XMC4300-app/Dave/Generated/DIGITAL_IO\digital_io.h **** 
 282:D:/Infineon/Tools/DAVE IDE/4.5.0.202105191637/eclipse/workspace/XMC4300-app/Dave/Generated/DIGITAL_IO\digital_io.h **** /**
 283:D:/Infineon/Tools/DAVE IDE/4.5.0.202105191637/eclipse/workspace/XMC4300-app/Dave/Generated/DIGITAL_IO\digital_io.h **** * @brief Function to reset port pin.
 284:D:/Infineon/Tools/DAVE IDE/4.5.0.202105191637/eclipse/workspace/XMC4300-app/Dave/Generated/DIGITAL_IO\digital_io.h **** * @param handler Pointer pointing to APP data structure. Refer @ref DIGITAL_IO_t for details.
 285:D:/Infineon/Tools/DAVE IDE/4.5.0.202105191637/eclipse/workspace/XMC4300-app/Dave/Generated/DIGITAL_IO\digital_io.h **** * @return None
 286:D:/Infineon/Tools/DAVE IDE/4.5.0.202105191637/eclipse/workspace/XMC4300-app/Dave/Generated/DIGITAL_IO\digital_io.h **** *
 287:D:/Infineon/Tools/DAVE IDE/4.5.0.202105191637/eclipse/workspace/XMC4300-app/Dave/Generated/DIGITAL_IO\digital_io.h **** * \par<b>Description:</b><br>
 288:D:/Infineon/Tools/DAVE IDE/4.5.0.202105191637/eclipse/workspace/XMC4300-app/Dave/Generated/DIGITAL_IO\digital_io.h **** * This function configures port output modification register Pn_OMR, to make port pin to low level.
 289:D:/Infineon/Tools/DAVE IDE/4.5.0.202105191637/eclipse/workspace/XMC4300-app/Dave/Generated/DIGITAL_IO\digital_io.h **** *
 290:D:/Infineon/Tools/DAVE IDE/4.5.0.202105191637/eclipse/workspace/XMC4300-app/Dave/Generated/DIGITAL_IO\digital_io.h **** * \par<b>Related APIs:</b><BR>
 291:D:/Infineon/Tools/DAVE IDE/4.5.0.202105191637/eclipse/workspace/XMC4300-app/Dave/Generated/DIGITAL_IO\digital_io.h **** * DIGITAL_IO_SetOutputHigh()
 292:D:/Infineon/Tools/DAVE IDE/4.5.0.202105191637/eclipse/workspace/XMC4300-app/Dave/Generated/DIGITAL_IO\digital_io.h **** *
 293:D:/Infineon/Tools/DAVE IDE/4.5.0.202105191637/eclipse/workspace/XMC4300-app/Dave/Generated/DIGITAL_IO\digital_io.h **** * Example Usage:
 294:D:/Infineon/Tools/DAVE IDE/4.5.0.202105191637/eclipse/workspace/XMC4300-app/Dave/Generated/DIGITAL_IO\digital_io.h **** * @code
 295:D:/Infineon/Tools/DAVE IDE/4.5.0.202105191637/eclipse/workspace/XMC4300-app/Dave/Generated/DIGITAL_IO\digital_io.h **** *  #include "DAVE.h" //Declarations from DAVE Code Generation (includes SFR declaration)
 296:D:/Infineon/Tools/DAVE IDE/4.5.0.202105191637/eclipse/workspace/XMC4300-app/Dave/Generated/DIGITAL_IO\digital_io.h **** *
 297:D:/Infineon/Tools/DAVE IDE/4.5.0.202105191637/eclipse/workspace/XMC4300-app/Dave/Generated/DIGITAL_IO\digital_io.h **** *  int main(void)
 298:D:/Infineon/Tools/DAVE IDE/4.5.0.202105191637/eclipse/workspace/XMC4300-app/Dave/Generated/DIGITAL_IO\digital_io.h **** *  {
 299:D:/Infineon/Tools/DAVE IDE/4.5.0.202105191637/eclipse/workspace/XMC4300-app/Dave/Generated/DIGITAL_IO\digital_io.h **** *    DAVE_STATUS_t status;
 300:D:/Infineon/Tools/DAVE IDE/4.5.0.202105191637/eclipse/workspace/XMC4300-app/Dave/Generated/DIGITAL_IO\digital_io.h **** *    status = DAVE_Init();  //(DAVE_STATUS_t)DIGITAL_IO_Init(&DIGITAL_IO_0) is called within DAVE_I
 301:D:/Infineon/Tools/DAVE IDE/4.5.0.202105191637/eclipse/workspace/XMC4300-app/Dave/Generated/DIGITAL_IO\digital_io.h **** *    if(status == DAVE_STATUS_SUCCESS)
 302:D:/Infineon/Tools/DAVE IDE/4.5.0.202105191637/eclipse/workspace/XMC4300-app/Dave/Generated/DIGITAL_IO\digital_io.h **** *    {
 303:D:/Infineon/Tools/DAVE IDE/4.5.0.202105191637/eclipse/workspace/XMC4300-app/Dave/Generated/DIGITAL_IO\digital_io.h **** *      XMC_DEBUG("DAVE Apps initialization success\n");
 304:D:/Infineon/Tools/DAVE IDE/4.5.0.202105191637/eclipse/workspace/XMC4300-app/Dave/Generated/DIGITAL_IO\digital_io.h **** *    }
 305:D:/Infineon/Tools/DAVE IDE/4.5.0.202105191637/eclipse/workspace/XMC4300-app/Dave/Generated/DIGITAL_IO\digital_io.h **** *    else
 306:D:/Infineon/Tools/DAVE IDE/4.5.0.202105191637/eclipse/workspace/XMC4300-app/Dave/Generated/DIGITAL_IO\digital_io.h **** *    {
 307:D:/Infineon/Tools/DAVE IDE/4.5.0.202105191637/eclipse/workspace/XMC4300-app/Dave/Generated/DIGITAL_IO\digital_io.h **** *      XMC_DEBUG(("DAVE Apps initialization failed with status %d\n", status));
 308:D:/Infineon/Tools/DAVE IDE/4.5.0.202105191637/eclipse/workspace/XMC4300-app/Dave/Generated/DIGITAL_IO\digital_io.h **** *      while(1U)
 309:D:/Infineon/Tools/DAVE IDE/4.5.0.202105191637/eclipse/workspace/XMC4300-app/Dave/Generated/DIGITAL_IO\digital_io.h **** *      {
 310:D:/Infineon/Tools/DAVE IDE/4.5.0.202105191637/eclipse/workspace/XMC4300-app/Dave/Generated/DIGITAL_IO\digital_io.h **** *      }
 311:D:/Infineon/Tools/DAVE IDE/4.5.0.202105191637/eclipse/workspace/XMC4300-app/Dave/Generated/DIGITAL_IO\digital_io.h **** *    }
 312:D:/Infineon/Tools/DAVE IDE/4.5.0.202105191637/eclipse/workspace/XMC4300-app/Dave/Generated/DIGITAL_IO\digital_io.h **** *    //Placeholder for user application code. The while loop below can be replaced with user applic
 313:D:/Infineon/Tools/DAVE IDE/4.5.0.202105191637/eclipse/workspace/XMC4300-app/Dave/Generated/DIGITAL_IO\digital_io.h **** *    DIGITAL_IO_SetOutputLow(&DIGITAL_IO_0);
 314:D:/Infineon/Tools/DAVE IDE/4.5.0.202105191637/eclipse/workspace/XMC4300-app/Dave/Generated/DIGITAL_IO\digital_io.h **** *    while(1U)
 315:D:/Infineon/Tools/DAVE IDE/4.5.0.202105191637/eclipse/workspace/XMC4300-app/Dave/Generated/DIGITAL_IO\digital_io.h **** *    {
 316:D:/Infineon/Tools/DAVE IDE/4.5.0.202105191637/eclipse/workspace/XMC4300-app/Dave/Generated/DIGITAL_IO\digital_io.h **** *      // Add application code here
 317:D:/Infineon/Tools/DAVE IDE/4.5.0.202105191637/eclipse/workspace/XMC4300-app/Dave/Generated/DIGITAL_IO\digital_io.h **** *    }
 318:D:/Infineon/Tools/DAVE IDE/4.5.0.202105191637/eclipse/workspace/XMC4300-app/Dave/Generated/DIGITAL_IO\digital_io.h **** *
 319:D:/Infineon/Tools/DAVE IDE/4.5.0.202105191637/eclipse/workspace/XMC4300-app/Dave/Generated/DIGITAL_IO\digital_io.h **** *   return (1);
 320:D:/Infineon/Tools/DAVE IDE/4.5.0.202105191637/eclipse/workspace/XMC4300-app/Dave/Generated/DIGITAL_IO\digital_io.h **** * }
 321:D:/Infineon/Tools/DAVE IDE/4.5.0.202105191637/eclipse/workspace/XMC4300-app/Dave/Generated/DIGITAL_IO\digital_io.h **** *  @endcode
 322:D:/Infineon/Tools/DAVE IDE/4.5.0.202105191637/eclipse/workspace/XMC4300-app/Dave/Generated/DIGITAL_IO\digital_io.h **** */
 323:D:/Infineon/Tools/DAVE IDE/4.5.0.202105191637/eclipse/workspace/XMC4300-app/Dave/Generated/DIGITAL_IO\digital_io.h **** 
 324:D:/Infineon/Tools/DAVE IDE/4.5.0.202105191637/eclipse/workspace/XMC4300-app/Dave/Generated/DIGITAL_IO\digital_io.h **** __STATIC_INLINE void DIGITAL_IO_SetOutputLow(const DIGITAL_IO_t *const handler)
 325:D:/Infineon/Tools/DAVE IDE/4.5.0.202105191637/eclipse/workspace/XMC4300-app/Dave/Generated/DIGITAL_IO\digital_io.h **** {
 326:D:/Infineon/Tools/DAVE IDE/4.5.0.202105191637/eclipse/workspace/XMC4300-app/Dave/Generated/DIGITAL_IO\digital_io.h ****   XMC_ASSERT("DIGITAL_IO_SetOutputLow: handler null pointer", handler != NULL);
 327:D:/Infineon/Tools/DAVE IDE/4.5.0.202105191637/eclipse/workspace/XMC4300-app/Dave/Generated/DIGITAL_IO\digital_io.h ****   XMC_GPIO_SetOutputLow(handler->gpio_port,handler->gpio_pin);
 328:D:/Infineon/Tools/DAVE IDE/4.5.0.202105191637/eclipse/workspace/XMC4300-app/Dave/Generated/DIGITAL_IO\digital_io.h **** }
 329:D:/Infineon/Tools/DAVE IDE/4.5.0.202105191637/eclipse/workspace/XMC4300-app/Dave/Generated/DIGITAL_IO\digital_io.h **** 
 330:D:/Infineon/Tools/DAVE IDE/4.5.0.202105191637/eclipse/workspace/XMC4300-app/Dave/Generated/DIGITAL_IO\digital_io.h **** /**
 331:D:/Infineon/Tools/DAVE IDE/4.5.0.202105191637/eclipse/workspace/XMC4300-app/Dave/Generated/DIGITAL_IO\digital_io.h **** * @brief Function to Toggle port pin.
 332:D:/Infineon/Tools/DAVE IDE/4.5.0.202105191637/eclipse/workspace/XMC4300-app/Dave/Generated/DIGITAL_IO\digital_io.h **** * @param handler Pointer pointing to APP data structure. Refer @ref DIGITAL_IO_t for details.
 333:D:/Infineon/Tools/DAVE IDE/4.5.0.202105191637/eclipse/workspace/XMC4300-app/Dave/Generated/DIGITAL_IO\digital_io.h **** * @return None
 334:D:/Infineon/Tools/DAVE IDE/4.5.0.202105191637/eclipse/workspace/XMC4300-app/Dave/Generated/DIGITAL_IO\digital_io.h **** *
 335:D:/Infineon/Tools/DAVE IDE/4.5.0.202105191637/eclipse/workspace/XMC4300-app/Dave/Generated/DIGITAL_IO\digital_io.h **** * \par<b>Description:</b><br>
 336:D:/Infineon/Tools/DAVE IDE/4.5.0.202105191637/eclipse/workspace/XMC4300-app/Dave/Generated/DIGITAL_IO\digital_io.h **** * This function configures port output modification register Pn_OMR, to toggle port pin.
 337:D:/Infineon/Tools/DAVE IDE/4.5.0.202105191637/eclipse/workspace/XMC4300-app/Dave/Generated/DIGITAL_IO\digital_io.h **** *
 338:D:/Infineon/Tools/DAVE IDE/4.5.0.202105191637/eclipse/workspace/XMC4300-app/Dave/Generated/DIGITAL_IO\digital_io.h **** * \par<b>Related APIs:</b><BR>
 339:D:/Infineon/Tools/DAVE IDE/4.5.0.202105191637/eclipse/workspace/XMC4300-app/Dave/Generated/DIGITAL_IO\digital_io.h **** * DIGITAL_IO_SetOutputLow(), DIGITAL_IO_SetOutputHigh()
 340:D:/Infineon/Tools/DAVE IDE/4.5.0.202105191637/eclipse/workspace/XMC4300-app/Dave/Generated/DIGITAL_IO\digital_io.h **** *
 341:D:/Infineon/Tools/DAVE IDE/4.5.0.202105191637/eclipse/workspace/XMC4300-app/Dave/Generated/DIGITAL_IO\digital_io.h **** * Example Usage:
 342:D:/Infineon/Tools/DAVE IDE/4.5.0.202105191637/eclipse/workspace/XMC4300-app/Dave/Generated/DIGITAL_IO\digital_io.h **** *
 343:D:/Infineon/Tools/DAVE IDE/4.5.0.202105191637/eclipse/workspace/XMC4300-app/Dave/Generated/DIGITAL_IO\digital_io.h **** * @code
 344:D:/Infineon/Tools/DAVE IDE/4.5.0.202105191637/eclipse/workspace/XMC4300-app/Dave/Generated/DIGITAL_IO\digital_io.h **** * #include "DAVE.h" //Declarations from DAVE Code Generation (includes SFR declaration)
 345:D:/Infineon/Tools/DAVE IDE/4.5.0.202105191637/eclipse/workspace/XMC4300-app/Dave/Generated/DIGITAL_IO\digital_io.h **** *
 346:D:/Infineon/Tools/DAVE IDE/4.5.0.202105191637/eclipse/workspace/XMC4300-app/Dave/Generated/DIGITAL_IO\digital_io.h **** * int main(void)
 347:D:/Infineon/Tools/DAVE IDE/4.5.0.202105191637/eclipse/workspace/XMC4300-app/Dave/Generated/DIGITAL_IO\digital_io.h **** * {
 348:D:/Infineon/Tools/DAVE IDE/4.5.0.202105191637/eclipse/workspace/XMC4300-app/Dave/Generated/DIGITAL_IO\digital_io.h **** *   DAVE_STATUS_t status;
 349:D:/Infineon/Tools/DAVE IDE/4.5.0.202105191637/eclipse/workspace/XMC4300-app/Dave/Generated/DIGITAL_IO\digital_io.h **** *   uint32_t delay_count;;
 350:D:/Infineon/Tools/DAVE IDE/4.5.0.202105191637/eclipse/workspace/XMC4300-app/Dave/Generated/DIGITAL_IO\digital_io.h **** *   status = DAVE_Init();  //(DAVE_STATUS_t)DIGITAL_IO_Init(&DIGITAL_IO_0) is called within DAVE_In
 351:D:/Infineon/Tools/DAVE IDE/4.5.0.202105191637/eclipse/workspace/XMC4300-app/Dave/Generated/DIGITAL_IO\digital_io.h **** *   if(status == DAVE_STATUS_SUCCESS)
 352:D:/Infineon/Tools/DAVE IDE/4.5.0.202105191637/eclipse/workspace/XMC4300-app/Dave/Generated/DIGITAL_IO\digital_io.h **** *   {
 353:D:/Infineon/Tools/DAVE IDE/4.5.0.202105191637/eclipse/workspace/XMC4300-app/Dave/Generated/DIGITAL_IO\digital_io.h **** *     XMC_DEBUG("DAVE Apps initialization success\n");
 354:D:/Infineon/Tools/DAVE IDE/4.5.0.202105191637/eclipse/workspace/XMC4300-app/Dave/Generated/DIGITAL_IO\digital_io.h **** *   }
 355:D:/Infineon/Tools/DAVE IDE/4.5.0.202105191637/eclipse/workspace/XMC4300-app/Dave/Generated/DIGITAL_IO\digital_io.h **** *   else
 356:D:/Infineon/Tools/DAVE IDE/4.5.0.202105191637/eclipse/workspace/XMC4300-app/Dave/Generated/DIGITAL_IO\digital_io.h **** *   {
 357:D:/Infineon/Tools/DAVE IDE/4.5.0.202105191637/eclipse/workspace/XMC4300-app/Dave/Generated/DIGITAL_IO\digital_io.h **** *      XMC_DEBUG(("DAVE Apps initialization failed with status %d\n", status));
 358:D:/Infineon/Tools/DAVE IDE/4.5.0.202105191637/eclipse/workspace/XMC4300-app/Dave/Generated/DIGITAL_IO\digital_io.h **** *      while(1U)
 359:D:/Infineon/Tools/DAVE IDE/4.5.0.202105191637/eclipse/workspace/XMC4300-app/Dave/Generated/DIGITAL_IO\digital_io.h **** *      {
 360:D:/Infineon/Tools/DAVE IDE/4.5.0.202105191637/eclipse/workspace/XMC4300-app/Dave/Generated/DIGITAL_IO\digital_io.h **** *      }
 361:D:/Infineon/Tools/DAVE IDE/4.5.0.202105191637/eclipse/workspace/XMC4300-app/Dave/Generated/DIGITAL_IO\digital_io.h **** *   }
 362:D:/Infineon/Tools/DAVE IDE/4.5.0.202105191637/eclipse/workspace/XMC4300-app/Dave/Generated/DIGITAL_IO\digital_io.h **** *   //Placeholder for user application code. The while loop below can be replaced with user applica
 363:D:/Infineon/Tools/DAVE IDE/4.5.0.202105191637/eclipse/workspace/XMC4300-app/Dave/Generated/DIGITAL_IO\digital_io.h **** *   while(1U)
 364:D:/Infineon/Tools/DAVE IDE/4.5.0.202105191637/eclipse/workspace/XMC4300-app/Dave/Generated/DIGITAL_IO\digital_io.h **** *   {
 365:D:/Infineon/Tools/DAVE IDE/4.5.0.202105191637/eclipse/workspace/XMC4300-app/Dave/Generated/DIGITAL_IO\digital_io.h **** *      DIGITAL_IO_ToggleOutput(&DIGITAL_IO_0); //toggles : 1 -> 0 (if initial output level is logic
 366:D:/Infineon/Tools/DAVE IDE/4.5.0.202105191637/eclipse/workspace/XMC4300-app/Dave/Generated/DIGITAL_IO\digital_io.h **** *      //Add application code here
 367:D:/Infineon/Tools/DAVE IDE/4.5.0.202105191637/eclipse/workspace/XMC4300-app/Dave/Generated/DIGITAL_IO\digital_io.h **** *      for(delay_count = 0;delay_count<0xfffff;delay_count++);
 368:D:/Infineon/Tools/DAVE IDE/4.5.0.202105191637/eclipse/workspace/XMC4300-app/Dave/Generated/DIGITAL_IO\digital_io.h **** *      DIGITAL_IO_ToggleOutput(&DIGITAL_IO_0); //toggles : 0 -> 1
 369:D:/Infineon/Tools/DAVE IDE/4.5.0.202105191637/eclipse/workspace/XMC4300-app/Dave/Generated/DIGITAL_IO\digital_io.h **** *      //Add application code here
 370:D:/Infineon/Tools/DAVE IDE/4.5.0.202105191637/eclipse/workspace/XMC4300-app/Dave/Generated/DIGITAL_IO\digital_io.h **** *      for(delay_count = 0;delay_count<0xfffff;delay_count++);
 371:D:/Infineon/Tools/DAVE IDE/4.5.0.202105191637/eclipse/workspace/XMC4300-app/Dave/Generated/DIGITAL_IO\digital_io.h **** *   }
 372:D:/Infineon/Tools/DAVE IDE/4.5.0.202105191637/eclipse/workspace/XMC4300-app/Dave/Generated/DIGITAL_IO\digital_io.h **** *   return (1);
 373:D:/Infineon/Tools/DAVE IDE/4.5.0.202105191637/eclipse/workspace/XMC4300-app/Dave/Generated/DIGITAL_IO\digital_io.h **** * }
 374:D:/Infineon/Tools/DAVE IDE/4.5.0.202105191637/eclipse/workspace/XMC4300-app/Dave/Generated/DIGITAL_IO\digital_io.h **** *  @endcode
 375:D:/Infineon/Tools/DAVE IDE/4.5.0.202105191637/eclipse/workspace/XMC4300-app/Dave/Generated/DIGITAL_IO\digital_io.h **** */
 376:D:/Infineon/Tools/DAVE IDE/4.5.0.202105191637/eclipse/workspace/XMC4300-app/Dave/Generated/DIGITAL_IO\digital_io.h **** 
 377:D:/Infineon/Tools/DAVE IDE/4.5.0.202105191637/eclipse/workspace/XMC4300-app/Dave/Generated/DIGITAL_IO\digital_io.h **** __STATIC_INLINE void DIGITAL_IO_ToggleOutput(const DIGITAL_IO_t *const handler)
 378:D:/Infineon/Tools/DAVE IDE/4.5.0.202105191637/eclipse/workspace/XMC4300-app/Dave/Generated/DIGITAL_IO\digital_io.h **** {
  75              	 .loc 2 378 0
  76              	 .cfi_startproc
  77              	 
  78              	 
  79 0000 80B5     	 push {r7,lr}
  80              	.LCFI6:
  81              	 .cfi_def_cfa_offset 8
  82              	 .cfi_offset 7,-8
  83              	 .cfi_offset 14,-4
  84 0002 82B0     	 sub sp,sp,#8
  85              	.LCFI7:
  86              	 .cfi_def_cfa_offset 16
  87 0004 00AF     	 add r7,sp,#0
  88              	.LCFI8:
  89              	 .cfi_def_cfa_register 7
  90 0006 7860     	 str r0,[r7,#4]
 379:D:/Infineon/Tools/DAVE IDE/4.5.0.202105191637/eclipse/workspace/XMC4300-app/Dave/Generated/DIGITAL_IO\digital_io.h ****   XMC_ASSERT("DIGITAL_IO_ToggleOutput: handler null pointer", handler != NULL);
 380:D:/Infineon/Tools/DAVE IDE/4.5.0.202105191637/eclipse/workspace/XMC4300-app/Dave/Generated/DIGITAL_IO\digital_io.h ****   XMC_GPIO_ToggleOutput(handler->gpio_port, handler->gpio_pin);
  91              	 .loc 2 380 0
  92 0008 7B68     	 ldr r3,[r7,#4]
  93 000a 1A68     	 ldr r2,[r3]
  94 000c 7B68     	 ldr r3,[r7,#4]
  95 000e 1B7C     	 ldrb r3,[r3,#16]
  96 0010 1046     	 mov r0,r2
  97 0012 1946     	 mov r1,r3
  98 0014 FFF7FEFF 	 bl XMC_GPIO_ToggleOutput
 381:D:/Infineon/Tools/DAVE IDE/4.5.0.202105191637/eclipse/workspace/XMC4300-app/Dave/Generated/DIGITAL_IO\digital_io.h **** }
  99              	 .loc 2 381 0
 100 0018 0837     	 adds r7,r7,#8
 101              	.LCFI9:
 102              	 .cfi_def_cfa_offset 8
 103 001a BD46     	 mov sp,r7
 104              	.LCFI10:
 105              	 .cfi_def_cfa_register 13
 106              	 
 107 001c 80BD     	 pop {r7,pc}
 108              	 .cfi_endproc
 109              	.LFE145:
 111 001e 00BF     	 .section .text.App_CoeWriteInd,"ax",%progbits
 112              	 .align 2
 113              	 .thumb
 114              	 .thumb_func
 116              	App_CoeWriteInd:
 117              	.LFB479:
 118              	 .file 3 "../main.c"
   1:../main.c     **** /* ================= Application main.c ================= */
   2:../main.c     **** #include "DAVE.h"
   3:../main.c     **** #include "BSP/app_init.h"
   4:../main.c     **** #include "BSP/systick.h"
   5:../main.c     **** #include "BSP/dev_config.h"
   6:../main.c     **** #include "BSP/bsp_can.h"
   7:../main.c     **** #include "SSC/Src/applInterface.h"
   8:../main.c     **** #include "firmwareupdate_SSC.h"
   9:../main.c     **** #include "ecat_callback.h"
  10:../main.c     **** 
  11:../main.c     **** /* CoE 写入回调 */
  12:../main.c     **** static void App_CoeWriteInd(UINT16 Index, UINT8 Subindex, BOOL CompleteAccess)
  13:../main.c     **** {
 119              	 .loc 3 13 0
 120              	 .cfi_startproc
 121              	 
 122              	 
 123 0000 80B5     	 push {r7,lr}
 124              	.LCFI11:
 125              	 .cfi_def_cfa_offset 8
 126              	 .cfi_offset 7,-8
 127              	 .cfi_offset 14,-4
 128 0002 82B0     	 sub sp,sp,#8
 129              	.LCFI12:
 130              	 .cfi_def_cfa_offset 16
 131 0004 00AF     	 add r7,sp,#0
 132              	.LCFI13:
 133              	 .cfi_def_cfa_register 7
 134 0006 0346     	 mov r3,r0
 135 0008 FB80     	 strh r3,[r7,#6]
 136 000a 0B46     	 mov r3,r1
 137 000c 7B71     	 strb r3,[r7,#5]
 138 000e 1346     	 mov r3,r2
 139 0010 3B71     	 strb r3,[r7,#4]
  14:../main.c     ****     /* 处理 0x8000 对象写入 */
  15:../main.c     ****     DevConfig_OnCoeWrite(Index, Subindex);
 140              	 .loc 3 15 0
 141 0012 FA88     	 ldrh r2,[r7,#6]
 142 0014 7B79     	 ldrb r3,[r7,#5]
 143 0016 1046     	 mov r0,r2
 144 0018 1946     	 mov r1,r3
 145 001a FFF7FEFF 	 bl DevConfig_OnCoeWrite
  16:../main.c     **** }
 146              	 .loc 3 16 0
 147 001e 0837     	 adds r7,r7,#8
 148              	.LCFI14:
 149              	 .cfi_def_cfa_offset 8
 150 0020 BD46     	 mov sp,r7
 151              	.LCFI15:
 152              	 .cfi_def_cfa_register 13
 153              	 
 154 0022 80BD     	 pop {r7,pc}
 155              	 .cfi_endproc
 156              	.LFE479:
 158              	 .section .text.main,"ax",%progbits
 159              	 .align 2
 160              	 .global main
 161              	 .thumb
 162              	 .thumb_func
 164              	main:
 165              	.LFB480:
  17:../main.c     **** 
  18:../main.c     **** int main(void)
  19:../main.c     **** {
 166              	 .loc 3 19 0
 167              	 .cfi_startproc
 168              	 
 169              	 
 170 0000 80B5     	 push {r7,lr}
 171              	.LCFI16:
 172              	 .cfi_def_cfa_offset 8
 173              	 .cfi_offset 7,-8
 174              	 .cfi_offset 14,-4
 175 0002 82B0     	 sub sp,sp,#8
 176              	.LCFI17:
 177              	 .cfi_def_cfa_offset 16
 178 0004 00AF     	 add r7,sp,#0
 179              	.LCFI18:
 180              	 .cfi_def_cfa_register 7
  20:../main.c     ****     /* 设置向量表 (必须在 DAVE_Init 之前) */
  21:../main.c     ****     App_Init();
 181              	 .loc 3 21 0
 182 0006 FFF7FEFF 	 bl App_Init
  22:../main.c     **** 
  23:../main.c     ****     /* 初始化 DAVE */
  24:../main.c     ****     DAVE_Init();
 183              	 .loc 3 24 0
 184 000a FFF7FEFF 	 bl DAVE_Init
  25:../main.c     **** 
  26:../main.c     ****     /* App 身份自注册 */
  27:../main.c     ****     App_Self_Identity_Registration();
 185              	 .loc 3 27 0
 186 000e FFF7FEFF 	 bl App_Self_Identity_Registration
 187              	.LBB6:
 188              	.LBB7:
 189              	 .file 4 "D:/Infineon/Tools/DAVE IDE/4.5.0.202105191637/eclipse/workspace/XMC4300-app/Libraries/CMSIS/Include/cmsis_gcc.h"
   1:D:/Infineon/Tools/DAVE IDE/4.5.0.202105191637/eclipse/workspace/XMC4300-app/Libraries/CMSIS/Include\cmsis_gcc.h **** /**************************************************************************//**
   2:D:/Infineon/Tools/DAVE IDE/4.5.0.202105191637/eclipse/workspace/XMC4300-app/Libraries/CMSIS/Include\cmsis_gcc.h ****  * @file     cmsis_gcc.h
   3:D:/Infineon/Tools/DAVE IDE/4.5.0.202105191637/eclipse/workspace/XMC4300-app/Libraries/CMSIS/Include\cmsis_gcc.h ****  * @brief    CMSIS compiler GCC header file
   4:D:/Infineon/Tools/DAVE IDE/4.5.0.202105191637/eclipse/workspace/XMC4300-app/Libraries/CMSIS/Include\cmsis_gcc.h ****  * @version  V5.3.0
   5:D:/Infineon/Tools/DAVE IDE/4.5.0.202105191637/eclipse/workspace/XMC4300-app/Libraries/CMSIS/Include\cmsis_gcc.h ****  * @date     26. March 2020
   6:D:/Infineon/Tools/DAVE IDE/4.5.0.202105191637/eclipse/workspace/XMC4300-app/Libraries/CMSIS/Include\cmsis_gcc.h ****  ******************************************************************************/
   7:D:/Infineon/Tools/DAVE IDE/4.5.0.202105191637/eclipse/workspace/XMC4300-app/Libraries/CMSIS/Include\cmsis_gcc.h **** /*
   8:D:/Infineon/Tools/DAVE IDE/4.5.0.202105191637/eclipse/workspace/XMC4300-app/Libraries/CMSIS/Include\cmsis_gcc.h ****  * Copyright (c) 2009-2020 Arm Limited. All rights reserved.
   9:D:/Infineon/Tools/DAVE IDE/4.5.0.202105191637/eclipse/workspace/XMC4300-app/Libraries/CMSIS/Include\cmsis_gcc.h ****  *
  10:D:/Infineon/Tools/DAVE IDE/4.5.0.202105191637/eclipse/workspace/XMC4300-app/Libraries/CMSIS/Include\cmsis_gcc.h ****  * SPDX-License-Identifier: Apache-2.0
  11:D:/Infineon/Tools/DAVE IDE/4.5.0.202105191637/eclipse/workspace/XMC4300-app/Libraries/CMSIS/Include\cmsis_gcc.h ****  *
  12:D:/Infineon/Tools/DAVE IDE/4.5.0.202105191637/eclipse/workspace/XMC4300-app/Libraries/CMSIS/Include\cmsis_gcc.h ****  * Licensed under the Apache License, Version 2.0 (the License); you may
  13:D:/Infineon/Tools/DAVE IDE/4.5.0.202105191637/eclipse/workspace/XMC4300-app/Libraries/CMSIS/Include\cmsis_gcc.h ****  * not use this file except in compliance with the License.
  14:D:/Infineon/Tools/DAVE IDE/4.5.0.202105191637/eclipse/workspace/XMC4300-app/Libraries/CMSIS/Include\cmsis_gcc.h ****  * You may obtain a copy of the License at
  15:D:/Infineon/Tools/DAVE IDE/4.5.0.202105191637/eclipse/workspace/XMC4300-app/Libraries/CMSIS/Include\cmsis_gcc.h ****  *
  16:D:/Infineon/Tools/DAVE IDE/4.5.0.202105191637/eclipse/workspace/XMC4300-app/Libraries/CMSIS/Include\cmsis_gcc.h ****  * www.apache.org/licenses/LICENSE-2.0
  17:D:/Infineon/Tools/DAVE IDE/4.5.0.202105191637/eclipse/workspace/XMC4300-app/Libraries/CMSIS/Include\cmsis_gcc.h ****  *
  18:D:/Infineon/Tools/DAVE IDE/4.5.0.202105191637/eclipse/workspace/XMC4300-app/Libraries/CMSIS/Include\cmsis_gcc.h ****  * Unless required by applicable law or agreed to in writing, software
  19:D:/Infineon/Tools/DAVE IDE/4.5.0.202105191637/eclipse/workspace/XMC4300-app/Libraries/CMSIS/Include\cmsis_gcc.h ****  * distributed under the License is distributed on an AS IS BASIS, WITHOUT
  20:D:/Infineon/Tools/DAVE IDE/4.5.0.202105191637/eclipse/workspace/XMC4300-app/Libraries/CMSIS/Include\cmsis_gcc.h ****  * WARRANTIES OR CONDITIONS OF ANY KIND, either express or implied.
  21:D:/Infineon/Tools/DAVE IDE/4.5.0.202105191637/eclipse/workspace/XMC4300-app/Libraries/CMSIS/Include\cmsis_gcc.h ****  * See the License for the specific language governing permissions and
  22:D:/Infineon/Tools/DAVE IDE/4.5.0.202105191637/eclipse/workspace/XMC4300-app/Libraries/CMSIS/Include\cmsis_gcc.h ****  * limitations under the License.
  23:D:/Infineon/Tools/DAVE IDE/4.5.0.202105191637/eclipse/workspace/XMC4300-app/Libraries/CMSIS/Include\cmsis_gcc.h ****  */
  24:D:/Infineon/Tools/DAVE IDE/4.5.0.202105191637/eclipse/workspace/XMC4300-app/Libraries/CMSIS/Include\cmsis_gcc.h **** 
  25:D:/Infineon/Tools/DAVE IDE/4.5.0.202105191637/eclipse/workspace/XMC4300-app/Libraries/CMSIS/Include\cmsis_gcc.h **** #ifndef __CMSIS_GCC_H
  26:D:/Infineon/Tools/DAVE IDE/4.5.0.202105191637/eclipse/workspace/XMC4300-app/Libraries/CMSIS/Include\cmsis_gcc.h **** #define __CMSIS_GCC_H
  27:D:/Infineon/Tools/DAVE IDE/4.5.0.202105191637/eclipse/workspace/XMC4300-app/Libraries/CMSIS/Include\cmsis_gcc.h **** 
  28:D:/Infineon/Tools/DAVE IDE/4.5.0.202105191637/eclipse/workspace/XMC4300-app/Libraries/CMSIS/Include\cmsis_gcc.h **** /* ignore some GCC warnings */
  29:D:/Infineon/Tools/DAVE IDE/4.5.0.202105191637/eclipse/workspace/XMC4300-app/Libraries/CMSIS/Include\cmsis_gcc.h **** #pragma GCC diagnostic push
  30:D:/Infineon/Tools/DAVE IDE/4.5.0.202105191637/eclipse/workspace/XMC4300-app/Libraries/CMSIS/Include\cmsis_gcc.h **** #pragma GCC diagnostic ignored "-Wsign-conversion"
  31:D:/Infineon/Tools/DAVE IDE/4.5.0.202105191637/eclipse/workspace/XMC4300-app/Libraries/CMSIS/Include\cmsis_gcc.h **** #pragma GCC diagnostic ignored "-Wconversion"
  32:D:/Infineon/Tools/DAVE IDE/4.5.0.202105191637/eclipse/workspace/XMC4300-app/Libraries/CMSIS/Include\cmsis_gcc.h **** #pragma GCC diagnostic ignored "-Wunused-parameter"
  33:D:/Infineon/Tools/DAVE IDE/4.5.0.202105191637/eclipse/workspace/XMC4300-app/Libraries/CMSIS/Include\cmsis_gcc.h **** 
  34:D:/Infineon/Tools/DAVE IDE/4.5.0.202105191637/eclipse/workspace/XMC4300-app/Libraries/CMSIS/Include\cmsis_gcc.h **** /* Fallback for __has_builtin */
  35:D:/Infineon/Tools/DAVE IDE/4.5.0.202105191637/eclipse/workspace/XMC4300-app/Libraries/CMSIS/Include\cmsis_gcc.h **** #ifndef __has_builtin
  36:D:/Infineon/Tools/DAVE IDE/4.5.0.202105191637/eclipse/workspace/XMC4300-app/Libraries/CMSIS/Include\cmsis_gcc.h ****   #define __has_builtin(x) (0)
  37:D:/Infineon/Tools/DAVE IDE/4.5.0.202105191637/eclipse/workspace/XMC4300-app/Libraries/CMSIS/Include\cmsis_gcc.h **** #endif
  38:D:/Infineon/Tools/DAVE IDE/4.5.0.202105191637/eclipse/workspace/XMC4300-app/Libraries/CMSIS/Include\cmsis_gcc.h **** 
  39:D:/Infineon/Tools/DAVE IDE/4.5.0.202105191637/eclipse/workspace/XMC4300-app/Libraries/CMSIS/Include\cmsis_gcc.h **** /* CMSIS compiler specific defines */
  40:D:/Infineon/Tools/DAVE IDE/4.5.0.202105191637/eclipse/workspace/XMC4300-app/Libraries/CMSIS/Include\cmsis_gcc.h **** #ifndef   __ASM
  41:D:/Infineon/Tools/DAVE IDE/4.5.0.202105191637/eclipse/workspace/XMC4300-app/Libraries/CMSIS/Include\cmsis_gcc.h ****   #define __ASM                                  __asm
  42:D:/Infineon/Tools/DAVE IDE/4.5.0.202105191637/eclipse/workspace/XMC4300-app/Libraries/CMSIS/Include\cmsis_gcc.h **** #endif
  43:D:/Infineon/Tools/DAVE IDE/4.5.0.202105191637/eclipse/workspace/XMC4300-app/Libraries/CMSIS/Include\cmsis_gcc.h **** #ifndef   __INLINE
  44:D:/Infineon/Tools/DAVE IDE/4.5.0.202105191637/eclipse/workspace/XMC4300-app/Libraries/CMSIS/Include\cmsis_gcc.h ****   #define __INLINE                               inline
  45:D:/Infineon/Tools/DAVE IDE/4.5.0.202105191637/eclipse/workspace/XMC4300-app/Libraries/CMSIS/Include\cmsis_gcc.h **** #endif
  46:D:/Infineon/Tools/DAVE IDE/4.5.0.202105191637/eclipse/workspace/XMC4300-app/Libraries/CMSIS/Include\cmsis_gcc.h **** #ifndef   __STATIC_INLINE
  47:D:/Infineon/Tools/DAVE IDE/4.5.0.202105191637/eclipse/workspace/XMC4300-app/Libraries/CMSIS/Include\cmsis_gcc.h ****   #define __STATIC_INLINE                        static inline
  48:D:/Infineon/Tools/DAVE IDE/4.5.0.202105191637/eclipse/workspace/XMC4300-app/Libraries/CMSIS/Include\cmsis_gcc.h **** #endif
  49:D:/Infineon/Tools/DAVE IDE/4.5.0.202105191637/eclipse/workspace/XMC4300-app/Libraries/CMSIS/Include\cmsis_gcc.h **** #ifndef   __STATIC_FORCEINLINE                 
  50:D:/Infineon/Tools/DAVE IDE/4.5.0.202105191637/eclipse/workspace/XMC4300-app/Libraries/CMSIS/Include\cmsis_gcc.h ****   #define __STATIC_FORCEINLINE                   __attribute__((always_inline)) static inline
  51:D:/Infineon/Tools/DAVE IDE/4.5.0.202105191637/eclipse/workspace/XMC4300-app/Libraries/CMSIS/Include\cmsis_gcc.h **** #endif                                           
  52:D:/Infineon/Tools/DAVE IDE/4.5.0.202105191637/eclipse/workspace/XMC4300-app/Libraries/CMSIS/Include\cmsis_gcc.h **** #ifndef   __NO_RETURN
  53:D:/Infineon/Tools/DAVE IDE/4.5.0.202105191637/eclipse/workspace/XMC4300-app/Libraries/CMSIS/Include\cmsis_gcc.h ****   #define __NO_RETURN                            __attribute__((__noreturn__))
  54:D:/Infineon/Tools/DAVE IDE/4.5.0.202105191637/eclipse/workspace/XMC4300-app/Libraries/CMSIS/Include\cmsis_gcc.h **** #endif
  55:D:/Infineon/Tools/DAVE IDE/4.5.0.202105191637/eclipse/workspace/XMC4300-app/Libraries/CMSIS/Include\cmsis_gcc.h **** #ifndef   __USED
  56:D:/Infineon/Tools/DAVE IDE/4.5.0.202105191637/eclipse/workspace/XMC4300-app/Libraries/CMSIS/Include\cmsis_gcc.h ****   #define __USED                                 __attribute__((used))
  57:D:/Infineon/Tools/DAVE IDE/4.5.0.202105191637/eclipse/workspace/XMC4300-app/Libraries/CMSIS/Include\cmsis_gcc.h **** #endif
  58:D:/Infineon/Tools/DAVE IDE/4.5.0.202105191637/eclipse/workspace/XMC4300-app/Libraries/CMSIS/Include\cmsis_gcc.h **** #ifndef   __WEAK
  59:D:/Infineon/Tools/DAVE IDE/4.5.0.202105191637/eclipse/workspace/XMC4300-app/Libraries/CMSIS/Include\cmsis_gcc.h ****   #define __WEAK                                 __attribute__((weak))
  60:D:/Infineon/Tools/DAVE IDE/4.5.0.202105191637/eclipse/workspace/XMC4300-app/Libraries/CMSIS/Include\cmsis_gcc.h **** #endif
  61:D:/Infineon/Tools/DAVE IDE/4.5.0.202105191637/eclipse/workspace/XMC4300-app/Libraries/CMSIS/Include\cmsis_gcc.h **** #ifndef   __PACKED
  62:D:/Infineon/Tools/DAVE IDE/4.5.0.202105191637/eclipse/workspace/XMC4300-app/Libraries/CMSIS/Include\cmsis_gcc.h ****   #define __PACKED                               __attribute__((packed, aligned(1)))
  63:D:/Infineon/Tools/DAVE IDE/4.5.0.202105191637/eclipse/workspace/XMC4300-app/Libraries/CMSIS/Include\cmsis_gcc.h **** #endif
  64:D:/Infineon/Tools/DAVE IDE/4.5.0.202105191637/eclipse/workspace/XMC4300-app/Libraries/CMSIS/Include\cmsis_gcc.h **** #ifndef   __PACKED_STRUCT
  65:D:/Infineon/Tools/DAVE IDE/4.5.0.202105191637/eclipse/workspace/XMC4300-app/Libraries/CMSIS/Include\cmsis_gcc.h ****   #define __PACKED_STRUCT                        struct __attribute__((packed, aligned(1)))
  66:D:/Infineon/Tools/DAVE IDE/4.5.0.202105191637/eclipse/workspace/XMC4300-app/Libraries/CMSIS/Include\cmsis_gcc.h **** #endif
  67:D:/Infineon/Tools/DAVE IDE/4.5.0.202105191637/eclipse/workspace/XMC4300-app/Libraries/CMSIS/Include\cmsis_gcc.h **** #ifndef   __PACKED_UNION
  68:D:/Infineon/Tools/DAVE IDE/4.5.0.202105191637/eclipse/workspace/XMC4300-app/Libraries/CMSIS/Include\cmsis_gcc.h ****   #define __PACKED_UNION                         union __attribute__((packed, aligned(1)))
  69:D:/Infineon/Tools/DAVE IDE/4.5.0.202105191637/eclipse/workspace/XMC4300-app/Libraries/CMSIS/Include\cmsis_gcc.h **** #endif
  70:D:/Infineon/Tools/DAVE IDE/4.5.0.202105191637/eclipse/workspace/XMC4300-app/Libraries/CMSIS/Include\cmsis_gcc.h **** #ifndef   __UNALIGNED_UINT32        /* deprecated */
  71:D:/Infineon/Tools/DAVE IDE/4.5.0.202105191637/eclipse/workspace/XMC4300-app/Libraries/CMSIS/Include\cmsis_gcc.h ****   #pragma GCC diagnostic push
  72:D:/Infineon/Tools/DAVE IDE/4.5.0.202105191637/eclipse/workspace/XMC4300-app/Libraries/CMSIS/Include\cmsis_gcc.h ****   #pragma GCC diagnostic ignored "-Wpacked"
  73:D:/Infineon/Tools/DAVE IDE/4.5.0.202105191637/eclipse/workspace/XMC4300-app/Libraries/CMSIS/Include\cmsis_gcc.h ****   #pragma GCC diagnostic ignored "-Wattributes"
  74:D:/Infineon/Tools/DAVE IDE/4.5.0.202105191637/eclipse/workspace/XMC4300-app/Libraries/CMSIS/Include\cmsis_gcc.h ****   struct __attribute__((packed)) T_UINT32 { uint32_t v; };
  75:D:/Infineon/Tools/DAVE IDE/4.5.0.202105191637/eclipse/workspace/XMC4300-app/Libraries/CMSIS/Include\cmsis_gcc.h ****   #pragma GCC diagnostic pop
  76:D:/Infineon/Tools/DAVE IDE/4.5.0.202105191637/eclipse/workspace/XMC4300-app/Libraries/CMSIS/Include\cmsis_gcc.h ****   #define __UNALIGNED_UINT32(x)                  (((struct T_UINT32 *)(x))->v)
  77:D:/Infineon/Tools/DAVE IDE/4.5.0.202105191637/eclipse/workspace/XMC4300-app/Libraries/CMSIS/Include\cmsis_gcc.h **** #endif
  78:D:/Infineon/Tools/DAVE IDE/4.5.0.202105191637/eclipse/workspace/XMC4300-app/Libraries/CMSIS/Include\cmsis_gcc.h **** #ifndef   __UNALIGNED_UINT16_WRITE
  79:D:/Infineon/Tools/DAVE IDE/4.5.0.202105191637/eclipse/workspace/XMC4300-app/Libraries/CMSIS/Include\cmsis_gcc.h ****   #pragma GCC diagnostic push
  80:D:/Infineon/Tools/DAVE IDE/4.5.0.202105191637/eclipse/workspace/XMC4300-app/Libraries/CMSIS/Include\cmsis_gcc.h ****   #pragma GCC diagnostic ignored "-Wpacked"
  81:D:/Infineon/Tools/DAVE IDE/4.5.0.202105191637/eclipse/workspace/XMC4300-app/Libraries/CMSIS/Include\cmsis_gcc.h ****   #pragma GCC diagnostic ignored "-Wattributes"
  82:D:/Infineon/Tools/DAVE IDE/4.5.0.202105191637/eclipse/workspace/XMC4300-app/Libraries/CMSIS/Include\cmsis_gcc.h ****   __PACKED_STRUCT T_UINT16_WRITE { uint16_t v; };
  83:D:/Infineon/Tools/DAVE IDE/4.5.0.202105191637/eclipse/workspace/XMC4300-app/Libraries/CMSIS/Include\cmsis_gcc.h ****   #pragma GCC diagnostic pop
  84:D:/Infineon/Tools/DAVE IDE/4.5.0.202105191637/eclipse/workspace/XMC4300-app/Libraries/CMSIS/Include\cmsis_gcc.h ****   #define __UNALIGNED_UINT16_WRITE(addr, val)    (void)((((struct T_UINT16_WRITE *)(void *)(addr))-
  85:D:/Infineon/Tools/DAVE IDE/4.5.0.202105191637/eclipse/workspace/XMC4300-app/Libraries/CMSIS/Include\cmsis_gcc.h **** #endif
  86:D:/Infineon/Tools/DAVE IDE/4.5.0.202105191637/eclipse/workspace/XMC4300-app/Libraries/CMSIS/Include\cmsis_gcc.h **** #ifndef   __UNALIGNED_UINT16_READ
  87:D:/Infineon/Tools/DAVE IDE/4.5.0.202105191637/eclipse/workspace/XMC4300-app/Libraries/CMSIS/Include\cmsis_gcc.h ****   #pragma GCC diagnostic push
  88:D:/Infineon/Tools/DAVE IDE/4.5.0.202105191637/eclipse/workspace/XMC4300-app/Libraries/CMSIS/Include\cmsis_gcc.h ****   #pragma GCC diagnostic ignored "-Wpacked"
  89:D:/Infineon/Tools/DAVE IDE/4.5.0.202105191637/eclipse/workspace/XMC4300-app/Libraries/CMSIS/Include\cmsis_gcc.h ****   #pragma GCC diagnostic ignored "-Wattributes"
  90:D:/Infineon/Tools/DAVE IDE/4.5.0.202105191637/eclipse/workspace/XMC4300-app/Libraries/CMSIS/Include\cmsis_gcc.h ****   __PACKED_STRUCT T_UINT16_READ { uint16_t v; };
  91:D:/Infineon/Tools/DAVE IDE/4.5.0.202105191637/eclipse/workspace/XMC4300-app/Libraries/CMSIS/Include\cmsis_gcc.h ****   #pragma GCC diagnostic pop
  92:D:/Infineon/Tools/DAVE IDE/4.5.0.202105191637/eclipse/workspace/XMC4300-app/Libraries/CMSIS/Include\cmsis_gcc.h ****   #define __UNALIGNED_UINT16_READ(addr)          (((const struct T_UINT16_READ *)(const void *)(add
  93:D:/Infineon/Tools/DAVE IDE/4.5.0.202105191637/eclipse/workspace/XMC4300-app/Libraries/CMSIS/Include\cmsis_gcc.h **** #endif
  94:D:/Infineon/Tools/DAVE IDE/4.5.0.202105191637/eclipse/workspace/XMC4300-app/Libraries/CMSIS/Include\cmsis_gcc.h **** #ifndef   __UNALIGNED_UINT32_WRITE
  95:D:/Infineon/Tools/DAVE IDE/4.5.0.202105191637/eclipse/workspace/XMC4300-app/Libraries/CMSIS/Include\cmsis_gcc.h ****   #pragma GCC diagnostic push
  96:D:/Infineon/Tools/DAVE IDE/4.5.0.202105191637/eclipse/workspace/XMC4300-app/Libraries/CMSIS/Include\cmsis_gcc.h ****   #pragma GCC diagnostic ignored "-Wpacked"
  97:D:/Infineon/Tools/DAVE IDE/4.5.0.202105191637/eclipse/workspace/XMC4300-app/Libraries/CMSIS/Include\cmsis_gcc.h ****   #pragma GCC diagnostic ignored "-Wattributes"
  98:D:/Infineon/Tools/DAVE IDE/4.5.0.202105191637/eclipse/workspace/XMC4300-app/Libraries/CMSIS/Include\cmsis_gcc.h ****   __PACKED_STRUCT T_UINT32_WRITE { uint32_t v; };
  99:D:/Infineon/Tools/DAVE IDE/4.5.0.202105191637/eclipse/workspace/XMC4300-app/Libraries/CMSIS/Include\cmsis_gcc.h ****   #pragma GCC diagnostic pop
 100:D:/Infineon/Tools/DAVE IDE/4.5.0.202105191637/eclipse/workspace/XMC4300-app/Libraries/CMSIS/Include\cmsis_gcc.h ****   #define __UNALIGNED_UINT32_WRITE(addr, val)    (void)((((struct T_UINT32_WRITE *)(void *)(addr))-
 101:D:/Infineon/Tools/DAVE IDE/4.5.0.202105191637/eclipse/workspace/XMC4300-app/Libraries/CMSIS/Include\cmsis_gcc.h **** #endif
 102:D:/Infineon/Tools/DAVE IDE/4.5.0.202105191637/eclipse/workspace/XMC4300-app/Libraries/CMSIS/Include\cmsis_gcc.h **** #ifndef   __UNALIGNED_UINT32_READ
 103:D:/Infineon/Tools/DAVE IDE/4.5.0.202105191637/eclipse/workspace/XMC4300-app/Libraries/CMSIS/Include\cmsis_gcc.h ****   #pragma GCC diagnostic push
 104:D:/Infineon/Tools/DAVE IDE/4.5.0.202105191637/eclipse/workspace/XMC4300-app/Libraries/CMSIS/Include\cmsis_gcc.h ****   #pragma GCC diagnostic ignored "-Wpacked"
 105:D:/Infineon/Tools/DAVE IDE/4.5.0.202105191637/eclipse/workspace/XMC4300-app/Libraries/CMSIS/Include\cmsis_gcc.h ****   #pragma GCC diagnostic ignored "-Wattributes"
 106:D:/Infineon/Tools/DAVE IDE/4.5.0.202105191637/eclipse/workspace/XMC4300-app/Libraries/CMSIS/Include\cmsis_gcc.h ****   __PACKED_STRUCT T_UINT32_READ { uint32_t v; };
 107:D:/Infineon/Tools/DAVE IDE/4.5.0.202105191637/eclipse/workspace/XMC4300-app/Libraries/CMSIS/Include\cmsis_gcc.h ****   #pragma GCC diagnostic pop
 108:D:/Infineon/Tools/DAVE IDE/4.5.0.202105191637/eclipse/workspace/XMC4300-app/Libraries/CMSIS/Include\cmsis_gcc.h ****   #define __UNALIGNED_UINT32_READ(addr)          (((const struct T_UINT32_READ *)(const void *)(add
 109:D:/Infineon/Tools/DAVE IDE/4.5.0.202105191637/eclipse/workspace/XMC4300-app/Libraries/CMSIS/Include\cmsis_gcc.h **** #endif
 110:D:/Infineon/Tools/DAVE IDE/4.5.0.202105191637/eclipse/workspace/XMC4300-app/Libraries/CMSIS/Include\cmsis_gcc.h **** #ifndef   __ALIGNED
 111:D:/Infineon/Tools/DAVE IDE/4.5.0.202105191637/eclipse/workspace/XMC4300-app/Libraries/CMSIS/Include\cmsis_gcc.h ****   #define __ALIGNED(x)                           __attribute__((aligned(x)))
 112:D:/Infineon/Tools/DAVE IDE/4.5.0.202105191637/eclipse/workspace/XMC4300-app/Libraries/CMSIS/Include\cmsis_gcc.h **** #endif
 113:D:/Infineon/Tools/DAVE IDE/4.5.0.202105191637/eclipse/workspace/XMC4300-app/Libraries/CMSIS/Include\cmsis_gcc.h **** #ifndef   __RESTRICT
 114:D:/Infineon/Tools/DAVE IDE/4.5.0.202105191637/eclipse/workspace/XMC4300-app/Libraries/CMSIS/Include\cmsis_gcc.h ****   #define __RESTRICT                             __restrict
 115:D:/Infineon/Tools/DAVE IDE/4.5.0.202105191637/eclipse/workspace/XMC4300-app/Libraries/CMSIS/Include\cmsis_gcc.h **** #endif
 116:D:/Infineon/Tools/DAVE IDE/4.5.0.202105191637/eclipse/workspace/XMC4300-app/Libraries/CMSIS/Include\cmsis_gcc.h **** #ifndef   __COMPILER_BARRIER
 117:D:/Infineon/Tools/DAVE IDE/4.5.0.202105191637/eclipse/workspace/XMC4300-app/Libraries/CMSIS/Include\cmsis_gcc.h ****   #define __COMPILER_BARRIER()                   __ASM volatile("":::"memory")
 118:D:/Infineon/Tools/DAVE IDE/4.5.0.202105191637/eclipse/workspace/XMC4300-app/Libraries/CMSIS/Include\cmsis_gcc.h **** #endif
 119:D:/Infineon/Tools/DAVE IDE/4.5.0.202105191637/eclipse/workspace/XMC4300-app/Libraries/CMSIS/Include\cmsis_gcc.h **** 
 120:D:/Infineon/Tools/DAVE IDE/4.5.0.202105191637/eclipse/workspace/XMC4300-app/Libraries/CMSIS/Include\cmsis_gcc.h **** /* #########################  Startup and Lowlevel Init  ######################## */
 121:D:/Infineon/Tools/DAVE IDE/4.5.0.202105191637/eclipse/workspace/XMC4300-app/Libraries/CMSIS/Include\cmsis_gcc.h **** 
 122:D:/Infineon/Tools/DAVE IDE/4.5.0.202105191637/eclipse/workspace/XMC4300-app/Libraries/CMSIS/Include\cmsis_gcc.h **** #ifndef __PROGRAM_START
 123:D:/Infineon/Tools/DAVE IDE/4.5.0.202105191637/eclipse/workspace/XMC4300-app/Libraries/CMSIS/Include\cmsis_gcc.h **** 
 124:D:/Infineon/Tools/DAVE IDE/4.5.0.202105191637/eclipse/workspace/XMC4300-app/Libraries/CMSIS/Include\cmsis_gcc.h **** /**
 125:D:/Infineon/Tools/DAVE IDE/4.5.0.202105191637/eclipse/workspace/XMC4300-app/Libraries/CMSIS/Include\cmsis_gcc.h ****   \brief   Initializes data and bss sections
 126:D:/Infineon/Tools/DAVE IDE/4.5.0.202105191637/eclipse/workspace/XMC4300-app/Libraries/CMSIS/Include\cmsis_gcc.h ****   \details This default implementations initialized all data and additional bss
 127:D:/Infineon/Tools/DAVE IDE/4.5.0.202105191637/eclipse/workspace/XMC4300-app/Libraries/CMSIS/Include\cmsis_gcc.h ****            sections relying on .copy.table and .zero.table specified properly
 128:D:/Infineon/Tools/DAVE IDE/4.5.0.202105191637/eclipse/workspace/XMC4300-app/Libraries/CMSIS/Include\cmsis_gcc.h ****            in the used linker script.
 129:D:/Infineon/Tools/DAVE IDE/4.5.0.202105191637/eclipse/workspace/XMC4300-app/Libraries/CMSIS/Include\cmsis_gcc.h ****   
 130:D:/Infineon/Tools/DAVE IDE/4.5.0.202105191637/eclipse/workspace/XMC4300-app/Libraries/CMSIS/Include\cmsis_gcc.h ****  */
 131:D:/Infineon/Tools/DAVE IDE/4.5.0.202105191637/eclipse/workspace/XMC4300-app/Libraries/CMSIS/Include\cmsis_gcc.h **** __STATIC_FORCEINLINE __NO_RETURN void __cmsis_start(void)
 132:D:/Infineon/Tools/DAVE IDE/4.5.0.202105191637/eclipse/workspace/XMC4300-app/Libraries/CMSIS/Include\cmsis_gcc.h **** {
 133:D:/Infineon/Tools/DAVE IDE/4.5.0.202105191637/eclipse/workspace/XMC4300-app/Libraries/CMSIS/Include\cmsis_gcc.h ****   extern void _start(void) __NO_RETURN;
 134:D:/Infineon/Tools/DAVE IDE/4.5.0.202105191637/eclipse/workspace/XMC4300-app/Libraries/CMSIS/Include\cmsis_gcc.h ****   
 135:D:/Infineon/Tools/DAVE IDE/4.5.0.202105191637/eclipse/workspace/XMC4300-app/Libraries/CMSIS/Include\cmsis_gcc.h ****   typedef struct {
 136:D:/Infineon/Tools/DAVE IDE/4.5.0.202105191637/eclipse/workspace/XMC4300-app/Libraries/CMSIS/Include\cmsis_gcc.h ****     uint32_t const* src;
 137:D:/Infineon/Tools/DAVE IDE/4.5.0.202105191637/eclipse/workspace/XMC4300-app/Libraries/CMSIS/Include\cmsis_gcc.h ****     uint32_t* dest;
 138:D:/Infineon/Tools/DAVE IDE/4.5.0.202105191637/eclipse/workspace/XMC4300-app/Libraries/CMSIS/Include\cmsis_gcc.h ****     uint32_t  wlen;
 139:D:/Infineon/Tools/DAVE IDE/4.5.0.202105191637/eclipse/workspace/XMC4300-app/Libraries/CMSIS/Include\cmsis_gcc.h ****   } __copy_table_t;
 140:D:/Infineon/Tools/DAVE IDE/4.5.0.202105191637/eclipse/workspace/XMC4300-app/Libraries/CMSIS/Include\cmsis_gcc.h ****   
 141:D:/Infineon/Tools/DAVE IDE/4.5.0.202105191637/eclipse/workspace/XMC4300-app/Libraries/CMSIS/Include\cmsis_gcc.h ****   typedef struct {
 142:D:/Infineon/Tools/DAVE IDE/4.5.0.202105191637/eclipse/workspace/XMC4300-app/Libraries/CMSIS/Include\cmsis_gcc.h ****     uint32_t* dest;
 143:D:/Infineon/Tools/DAVE IDE/4.5.0.202105191637/eclipse/workspace/XMC4300-app/Libraries/CMSIS/Include\cmsis_gcc.h ****     uint32_t  wlen;
 144:D:/Infineon/Tools/DAVE IDE/4.5.0.202105191637/eclipse/workspace/XMC4300-app/Libraries/CMSIS/Include\cmsis_gcc.h ****   } __zero_table_t;
 145:D:/Infineon/Tools/DAVE IDE/4.5.0.202105191637/eclipse/workspace/XMC4300-app/Libraries/CMSIS/Include\cmsis_gcc.h ****   
 146:D:/Infineon/Tools/DAVE IDE/4.5.0.202105191637/eclipse/workspace/XMC4300-app/Libraries/CMSIS/Include\cmsis_gcc.h ****   extern const __copy_table_t __copy_table_start__;
 147:D:/Infineon/Tools/DAVE IDE/4.5.0.202105191637/eclipse/workspace/XMC4300-app/Libraries/CMSIS/Include\cmsis_gcc.h ****   extern const __copy_table_t __copy_table_end__;
 148:D:/Infineon/Tools/DAVE IDE/4.5.0.202105191637/eclipse/workspace/XMC4300-app/Libraries/CMSIS/Include\cmsis_gcc.h ****   extern const __zero_table_t __zero_table_start__;
 149:D:/Infineon/Tools/DAVE IDE/4.5.0.202105191637/eclipse/workspace/XMC4300-app/Libraries/CMSIS/Include\cmsis_gcc.h ****   extern const __zero_table_t __zero_table_end__;
 150:D:/Infineon/Tools/DAVE IDE/4.5.0.202105191637/eclipse/workspace/XMC4300-app/Libraries/CMSIS/Include\cmsis_gcc.h **** 
 151:D:/Infineon/Tools/DAVE IDE/4.5.0.202105191637/eclipse/workspace/XMC4300-app/Libraries/CMSIS/Include\cmsis_gcc.h ****   for (__copy_table_t const* pTable = &__copy_table_start__; pTable < &__copy_table_end__; ++pTable
 152:D:/Infineon/Tools/DAVE IDE/4.5.0.202105191637/eclipse/workspace/XMC4300-app/Libraries/CMSIS/Include\cmsis_gcc.h ****     for(uint32_t i=0u; i<pTable->wlen; ++i) {
 153:D:/Infineon/Tools/DAVE IDE/4.5.0.202105191637/eclipse/workspace/XMC4300-app/Libraries/CMSIS/Include\cmsis_gcc.h ****       pTable->dest[i] = pTable->src[i];
 154:D:/Infineon/Tools/DAVE IDE/4.5.0.202105191637/eclipse/workspace/XMC4300-app/Libraries/CMSIS/Include\cmsis_gcc.h ****     }
 155:D:/Infineon/Tools/DAVE IDE/4.5.0.202105191637/eclipse/workspace/XMC4300-app/Libraries/CMSIS/Include\cmsis_gcc.h ****   }
 156:D:/Infineon/Tools/DAVE IDE/4.5.0.202105191637/eclipse/workspace/XMC4300-app/Libraries/CMSIS/Include\cmsis_gcc.h ****  
 157:D:/Infineon/Tools/DAVE IDE/4.5.0.202105191637/eclipse/workspace/XMC4300-app/Libraries/CMSIS/Include\cmsis_gcc.h ****   for (__zero_table_t const* pTable = &__zero_table_start__; pTable < &__zero_table_end__; ++pTable
 158:D:/Infineon/Tools/DAVE IDE/4.5.0.202105191637/eclipse/workspace/XMC4300-app/Libraries/CMSIS/Include\cmsis_gcc.h ****     for(uint32_t i=0u; i<pTable->wlen; ++i) {
 159:D:/Infineon/Tools/DAVE IDE/4.5.0.202105191637/eclipse/workspace/XMC4300-app/Libraries/CMSIS/Include\cmsis_gcc.h ****       pTable->dest[i] = 0u;
 160:D:/Infineon/Tools/DAVE IDE/4.5.0.202105191637/eclipse/workspace/XMC4300-app/Libraries/CMSIS/Include\cmsis_gcc.h ****     }
 161:D:/Infineon/Tools/DAVE IDE/4.5.0.202105191637/eclipse/workspace/XMC4300-app/Libraries/CMSIS/Include\cmsis_gcc.h ****   }
 162:D:/Infineon/Tools/DAVE IDE/4.5.0.202105191637/eclipse/workspace/XMC4300-app/Libraries/CMSIS/Include\cmsis_gcc.h ****  
 163:D:/Infineon/Tools/DAVE IDE/4.5.0.202105191637/eclipse/workspace/XMC4300-app/Libraries/CMSIS/Include\cmsis_gcc.h ****   _start();
 164:D:/Infineon/Tools/DAVE IDE/4.5.0.202105191637/eclipse/workspace/XMC4300-app/Libraries/CMSIS/Include\cmsis_gcc.h **** }
 165:D:/Infineon/Tools/DAVE IDE/4.5.0.202105191637/eclipse/workspace/XMC4300-app/Libraries/CMSIS/Include\cmsis_gcc.h ****   
 166:D:/Infineon/Tools/DAVE IDE/4.5.0.202105191637/eclipse/workspace/XMC4300-app/Libraries/CMSIS/Include\cmsis_gcc.h **** #define __PROGRAM_START           __cmsis_start
 167:D:/Infineon/Tools/DAVE IDE/4.5.0.202105191637/eclipse/workspace/XMC4300-app/Libraries/CMSIS/Include\cmsis_gcc.h **** #endif
 168:D:/Infineon/Tools/DAVE IDE/4.5.0.202105191637/eclipse/workspace/XMC4300-app/Libraries/CMSIS/Include\cmsis_gcc.h **** 
 169:D:/Infineon/Tools/DAVE IDE/4.5.0.202105191637/eclipse/workspace/XMC4300-app/Libraries/CMSIS/Include\cmsis_gcc.h **** #ifndef __INITIAL_SP
 170:D:/Infineon/Tools/DAVE IDE/4.5.0.202105191637/eclipse/workspace/XMC4300-app/Libraries/CMSIS/Include\cmsis_gcc.h **** #define __INITIAL_SP              __StackTop
 171:D:/Infineon/Tools/DAVE IDE/4.5.0.202105191637/eclipse/workspace/XMC4300-app/Libraries/CMSIS/Include\cmsis_gcc.h **** #endif
 172:D:/Infineon/Tools/DAVE IDE/4.5.0.202105191637/eclipse/workspace/XMC4300-app/Libraries/CMSIS/Include\cmsis_gcc.h **** 
 173:D:/Infineon/Tools/DAVE IDE/4.5.0.202105191637/eclipse/workspace/XMC4300-app/Libraries/CMSIS/Include\cmsis_gcc.h **** #ifndef __STACK_LIMIT
 174:D:/Infineon/Tools/DAVE IDE/4.5.0.202105191637/eclipse/workspace/XMC4300-app/Libraries/CMSIS/Include\cmsis_gcc.h **** #define __STACK_LIMIT             __StackLimit
 175:D:/Infineon/Tools/DAVE IDE/4.5.0.202105191637/eclipse/workspace/XMC4300-app/Libraries/CMSIS/Include\cmsis_gcc.h **** #endif
 176:D:/Infineon/Tools/DAVE IDE/4.5.0.202105191637/eclipse/workspace/XMC4300-app/Libraries/CMSIS/Include\cmsis_gcc.h **** 
 177:D:/Infineon/Tools/DAVE IDE/4.5.0.202105191637/eclipse/workspace/XMC4300-app/Libraries/CMSIS/Include\cmsis_gcc.h **** #ifndef __VECTOR_TABLE
 178:D:/Infineon/Tools/DAVE IDE/4.5.0.202105191637/eclipse/workspace/XMC4300-app/Libraries/CMSIS/Include\cmsis_gcc.h **** #define __VECTOR_TABLE            __Vectors
 179:D:/Infineon/Tools/DAVE IDE/4.5.0.202105191637/eclipse/workspace/XMC4300-app/Libraries/CMSIS/Include\cmsis_gcc.h **** #endif
 180:D:/Infineon/Tools/DAVE IDE/4.5.0.202105191637/eclipse/workspace/XMC4300-app/Libraries/CMSIS/Include\cmsis_gcc.h **** 
 181:D:/Infineon/Tools/DAVE IDE/4.5.0.202105191637/eclipse/workspace/XMC4300-app/Libraries/CMSIS/Include\cmsis_gcc.h **** #ifndef __VECTOR_TABLE_ATTRIBUTE
 182:D:/Infineon/Tools/DAVE IDE/4.5.0.202105191637/eclipse/workspace/XMC4300-app/Libraries/CMSIS/Include\cmsis_gcc.h **** #define __VECTOR_TABLE_ATTRIBUTE  __attribute__((used, section(".vectors")))
 183:D:/Infineon/Tools/DAVE IDE/4.5.0.202105191637/eclipse/workspace/XMC4300-app/Libraries/CMSIS/Include\cmsis_gcc.h **** #endif
 184:D:/Infineon/Tools/DAVE IDE/4.5.0.202105191637/eclipse/workspace/XMC4300-app/Libraries/CMSIS/Include\cmsis_gcc.h **** 
 185:D:/Infineon/Tools/DAVE IDE/4.5.0.202105191637/eclipse/workspace/XMC4300-app/Libraries/CMSIS/Include\cmsis_gcc.h **** /* ###########################  Core Function Access  ########################### */
 186:D:/Infineon/Tools/DAVE IDE/4.5.0.202105191637/eclipse/workspace/XMC4300-app/Libraries/CMSIS/Include\cmsis_gcc.h **** /** \ingroup  CMSIS_Core_FunctionInterface
 187:D:/Infineon/Tools/DAVE IDE/4.5.0.202105191637/eclipse/workspace/XMC4300-app/Libraries/CMSIS/Include\cmsis_gcc.h ****     \defgroup CMSIS_Core_RegAccFunctions CMSIS Core Register Access Functions
 188:D:/Infineon/Tools/DAVE IDE/4.5.0.202105191637/eclipse/workspace/XMC4300-app/Libraries/CMSIS/Include\cmsis_gcc.h ****   @{
 189:D:/Infineon/Tools/DAVE IDE/4.5.0.202105191637/eclipse/workspace/XMC4300-app/Libraries/CMSIS/Include\cmsis_gcc.h ****  */
 190:D:/Infineon/Tools/DAVE IDE/4.5.0.202105191637/eclipse/workspace/XMC4300-app/Libraries/CMSIS/Include\cmsis_gcc.h **** 
 191:D:/Infineon/Tools/DAVE IDE/4.5.0.202105191637/eclipse/workspace/XMC4300-app/Libraries/CMSIS/Include\cmsis_gcc.h **** /**
 192:D:/Infineon/Tools/DAVE IDE/4.5.0.202105191637/eclipse/workspace/XMC4300-app/Libraries/CMSIS/Include\cmsis_gcc.h ****   \brief   Enable IRQ Interrupts
 193:D:/Infineon/Tools/DAVE IDE/4.5.0.202105191637/eclipse/workspace/XMC4300-app/Libraries/CMSIS/Include\cmsis_gcc.h ****   \details Enables IRQ interrupts by clearing the I-bit in the CPSR.
 194:D:/Infineon/Tools/DAVE IDE/4.5.0.202105191637/eclipse/workspace/XMC4300-app/Libraries/CMSIS/Include\cmsis_gcc.h ****            Can only be executed in Privileged modes.
 195:D:/Infineon/Tools/DAVE IDE/4.5.0.202105191637/eclipse/workspace/XMC4300-app/Libraries/CMSIS/Include\cmsis_gcc.h ****  */
 196:D:/Infineon/Tools/DAVE IDE/4.5.0.202105191637/eclipse/workspace/XMC4300-app/Libraries/CMSIS/Include\cmsis_gcc.h **** __STATIC_FORCEINLINE void __enable_irq(void)
 197:D:/Infineon/Tools/DAVE IDE/4.5.0.202105191637/eclipse/workspace/XMC4300-app/Libraries/CMSIS/Include\cmsis_gcc.h **** {
 198:D:/Infineon/Tools/DAVE IDE/4.5.0.202105191637/eclipse/workspace/XMC4300-app/Libraries/CMSIS/Include\cmsis_gcc.h ****   __ASM volatile ("cpsie i" : : : "memory");
 190              	 .loc 4 198 0
 191              	
 192 0012 62B6     	 cpsie i
 193              	
 194              	 .thumb
 195              	.LBE7:
 196              	.LBE6:
  28:../main.c     **** 
  29:../main.c     ****     /* DAVE_Init 完成后开启中断 */
  30:../main.c     ****     __enable_irq();
  31:../main.c     **** 
  32:../main.c     ****     /* 初始化 SysTick */
  33:../main.c     ****     SysTick_Init();
 197              	 .loc 3 33 0
 198 0014 FFF7FEFF 	 bl SysTick_Init
  34:../main.c     **** 
  35:../main.c     ****     /* 初始化设备配置 (从 EEPROM 加载到 SSC 对象) */
  36:../main.c     ****     DevConfig_Init();
 199              	 .loc 3 36 0
 200 0018 FFF7FEFF 	 bl DevConfig_Init
  37:../main.c     **** 
  38:../main.c     ****     /* 注册 CoE 写入回调 (写入 0x9001 时自动保存到 EEPROM) */
  39:../main.c     ****     pAPPL_CoeWriteInd = App_CoeWriteInd;
 201              	 .loc 3 39 0
 202 001c 454B     	 ldr r3,.L11
 203 001e 464A     	 ldr r2,.L11+4
 204 0020 1A60     	 str r2,[r3]
  40:../main.c     **** 
  41:../main.c     **** //    WATCHDOG_Start();
  42:../main.c     **** 
  43:../main.c     ****     /* App 模式主循环 */
  44:../main.c     ****     uint32_t lastToggle = 0;
 205              	 .loc 3 44 0
 206 0022 0023     	 movs r3,#0
 207 0024 7B60     	 str r3,[r7,#4]
 208              	.L10:
  45:../main.c     **** //    UART_Transmit(&UART_485, data, sizeof(data) - 1);
  46:../main.c     ****     while (1)
  47:../main.c     ****     {
  48:../main.c     **** //    	WATCHDOG_Service();         // 重置看门狗计数器
  49:../main.c     ****         MainLoop();
 209              	 .loc 3 49 0
 210 0026 FFF7FEFF 	 bl MainLoop
  50:../main.c     ****         FOE_HandleAsyncReset();
 211              	 .loc 3 50 0
 212 002a FFF7FEFF 	 bl FOE_HandleAsyncReset
  51:../main.c     **** 
  52:../main.c     ****         /* App 模式: LED 闪烁 (500ms 周期) - 非阻塞 */
  53:../main.c     ****         if ((Get_Time_Ms() - lastToggle) >= 500)
 213              	 .loc 3 53 0
 214 002e FFF7FEFF 	 bl Get_Time_Ms
 215 0032 0246     	 mov r2,r0
 216 0034 7B68     	 ldr r3,[r7,#4]
 217 0036 D31A     	 subs r3,r2,r3
 218 0038 B3F5FA7F 	 cmp r3,#500
 219 003c 05D3     	 bcc .L5
  54:../main.c     ****         {
  55:../main.c     ****             lastToggle = Get_Time_Ms();
 220              	 .loc 3 55 0
 221 003e FFF7FEFF 	 bl Get_Time_Ms
 222 0042 7860     	 str r0,[r7,#4]
  56:../main.c     ****             DIGITAL_IO_ToggleOutput(&LED);
 223              	 .loc 3 56 0
 224 0044 3D48     	 ldr r0,.L11+8
 225 0046 FFF7FEFF 	 bl DIGITAL_IO_ToggleOutput
 226              	.L5:
 227              	.LBB8:
  57:../main.c     ****         }
  58:../main.c     **** 
  59:../main.c     ****         // 总线数据解析
  60:../main.c     ****         for(int i = 0; i < BUS_NUM; i++)
 228              	 .loc 3 60 0
 229 004a 0023     	 movs r3,#0
 230 004c 3B60     	 str r3,[r7]
 231 004e 6DE0     	 b .L6
 232              	.L9:
  61:../main.c     ****         {
  62:../main.c     ****           if(RxMessRead[i] != RxMessWrite[i])
 233              	 .loc 3 62 0
 234 0050 3B4A     	 ldr r2,.L11+12
 235 0052 3B68     	 ldr r3,[r7]
 236 0054 1344     	 add r3,r3,r2
 237 0056 1B78     	 ldrb r3,[r3]
 238 0058 DAB2     	 uxtb r2,r3
 239 005a 3A49     	 ldr r1,.L11+16
 240 005c 3B68     	 ldr r3,[r7]
 241 005e 0B44     	 add r3,r3,r1
 242 0060 1B78     	 ldrb r3,[r3]
 243 0062 DBB2     	 uxtb r3,r3
 244 0064 9A42     	 cmp r2,r3
 245 0066 5ED0     	 beq .L7
 246              	.LBB9:
  63:../main.c     ****           {
  64:../main.c     ****             LastActionBus =  i;
 247              	 .loc 3 64 0
 248 0068 3B68     	 ldr r3,[r7]
 249 006a DAB2     	 uxtb r2,r3
 250 006c 364B     	 ldr r3,.L11+20
 251 006e 1A70     	 strb r2,[r3]
  65:../main.c     ****             RxCanId = RxMessage[i][RxMessRead[i]].id;
 252              	 .loc 3 65 0
 253 0070 334A     	 ldr r2,.L11+12
 254 0072 3B68     	 ldr r3,[r7]
 255 0074 1344     	 add r3,r3,r2
 256 0076 1B78     	 ldrb r3,[r3]
 257 0078 DBB2     	 uxtb r3,r3
 258 007a 3448     	 ldr r0,.L11+24
 259 007c 3968     	 ldr r1,[r7]
 260 007e 1A46     	 mov r2,r3
 261 0080 D200     	 lsls r2,r2,#3
 262 0082 1A44     	 add r2,r2,r3
 263 0084 D300     	 lsls r3,r2,#3
 264 0086 1A46     	 mov r2,r3
 265 0088 0B46     	 mov r3,r1
 266 008a DB00     	 lsls r3,r3,#3
 267 008c 0B44     	 add r3,r3,r1
 268 008e 9B01     	 lsls r3,r3,#6
 269 0090 1344     	 add r3,r3,r2
 270 0092 0344     	 add r3,r3,r0
 271 0094 4033     	 adds r3,r3,#64
 272 0096 1A88     	 ldrh r2,[r3]
 273 0098 2D4B     	 ldr r3,.L11+28
 274 009a 1A80     	 strh r2,[r3]
  66:../main.c     ****             CanRxLength = RxMessage[i][RxMessRead[i]].len;
 275              	 .loc 3 66 0
 276 009c 284A     	 ldr r2,.L11+12
 277 009e 3B68     	 ldr r3,[r7]
 278 00a0 1344     	 add r3,r3,r2
 279 00a2 1B78     	 ldrb r3,[r3]
 280 00a4 DBB2     	 uxtb r3,r3
 281 00a6 2948     	 ldr r0,.L11+24
 282 00a8 3968     	 ldr r1,[r7]
 283 00aa 1A46     	 mov r2,r3
 284 00ac D200     	 lsls r2,r2,#3
 285 00ae 1A44     	 add r2,r2,r3
 286 00b0 D300     	 lsls r3,r2,#3
 287 00b2 1A46     	 mov r2,r3
 288 00b4 0B46     	 mov r3,r1
 289 00b6 DB00     	 lsls r3,r3,#3
 290 00b8 0B44     	 add r3,r3,r1
 291 00ba 9B01     	 lsls r3,r3,#6
 292 00bc 1344     	 add r3,r3,r2
 293 00be 0344     	 add r3,r3,r0
 294 00c0 4033     	 adds r3,r3,#64
 295 00c2 9A78     	 ldrb r2,[r3,#2]
 296 00c4 234B     	 ldr r3,.L11+32
 297 00c6 1A70     	 strb r2,[r3]
  67:../main.c     **** //            CommandParse(RxMessage[i][RxMessRead[i]].Data, i);
  68:../main.c     ****             RS485_Protocol_HandleCommand(RxCanId,RxMessage[i][RxMessRead[i]].Data,CanRxLength);
 298              	 .loc 3 68 0
 299 00c8 214B     	 ldr r3,.L11+28
 300 00ca 1B88     	 ldrh r3,[r3]
 301 00cc 1846     	 mov r0,r3
 302 00ce 1C4A     	 ldr r2,.L11+12
 303 00d0 3B68     	 ldr r3,[r7]
 304 00d2 1344     	 add r3,r3,r2
 305 00d4 1B78     	 ldrb r3,[r3]
 306 00d6 DBB2     	 uxtb r3,r3
 307 00d8 1A46     	 mov r2,r3
 308 00da D200     	 lsls r2,r2,#3
 309 00dc 1A44     	 add r2,r2,r3
 310 00de D300     	 lsls r3,r2,#3
 311 00e0 1A46     	 mov r2,r3
 312 00e2 3968     	 ldr r1,[r7]
 313 00e4 0B46     	 mov r3,r1
 314 00e6 DB00     	 lsls r3,r3,#3
 315 00e8 0B44     	 add r3,r3,r1
 316 00ea 9B01     	 lsls r3,r3,#6
 317 00ec 1344     	 add r3,r3,r2
 318 00ee 174A     	 ldr r2,.L11+24
 319 00f0 1A44     	 add r2,r2,r3
 320 00f2 184B     	 ldr r3,.L11+32
 321 00f4 1B78     	 ldrb r3,[r3]
 322 00f6 1146     	 mov r1,r2
 323 00f8 1A46     	 mov r2,r3
 324 00fa FFF7FEFF 	 bl RS485_Protocol_HandleCommand
  69:../main.c     ****             RxMessRead[i] = (RxMessRead[i] + 1) % RxMessLength;
 325              	 .loc 3 69 0
 326 00fe 104A     	 ldr r2,.L11+12
 327 0100 3B68     	 ldr r3,[r7]
 328 0102 1344     	 add r3,r3,r2
 329 0104 1B78     	 ldrb r3,[r3]
 330 0106 DBB2     	 uxtb r3,r3
 331 0108 5A1C     	 adds r2,r3,#1
 332 010a 134B     	 ldr r3,.L11+36
 333 010c 1340     	 ands r3,r3,r2
 334 010e 002B     	 cmp r3,#0
 335 0110 03DA     	 bge .L8
 336 0112 013B     	 subs r3,r3,#1
 337 0114 63F00703 	 orn r3,r3,#7
 338 0118 0133     	 adds r3,r3,#1
 339              	.L8:
 340 011a D9B2     	 uxtb r1,r3
 341 011c 084A     	 ldr r2,.L11+12
 342 011e 3B68     	 ldr r3,[r7]
 343 0120 1344     	 add r3,r3,r2
 344 0122 0A46     	 mov r2,r1
 345 0124 1A70     	 strb r2,[r3]
 346              	.L7:
 347              	.LBE9:
  60:../main.c     **** it.h"
 348              	 .loc 3 60 0 discriminator 2
 349 0126 3B68     	 ldr r3,[r7]
 350 0128 0133     	 adds r3,r3,#1
 351 012a 3B60     	 str r3,[r7]
 352              	.L6:
  60:../main.c     **** it.h"
 353              	 .loc 3 60 0 is_stmt 0 discriminator 1
 354 012c 3B68     	 ldr r3,[r7]
 355 012e 052B     	 cmp r3,#5
 356 0130 8EDD     	 ble .L9
 357              	.LBE8:
  70:../main.c     ****           }
  71:../main.c     ****         }
  72:../main.c     ****     }
 358              	 .loc 3 72 0 is_stmt 1
 359 0132 78E7     	 b .L10
 360              	.L12:
 361              	 .align 2
 362              	.L11:
 363 0134 00000000 	 .word pAPPL_CoeWriteInd
 364 0138 00000000 	 .word App_CoeWriteInd
 365 013c 00000000 	 .word LED
 366 0140 00000000 	 .word RxMessRead
 367 0144 00000000 	 .word RxMessWrite
 368 0148 00000000 	 .word LastActionBus
 369 014c 00000000 	 .word RxMessage
 370 0150 00000000 	 .word RxCanId
 371 0154 00000000 	 .word CanRxLength
 372 0158 07000080 	 .word -2147483641
 373              	 .cfi_endproc
 374              	.LFE480:
 376              	 .text
 377              	.Letext0:
 378              	 .file 5 "d:\\infineon\\tools\\dave ide\\4.5.0.202105191637\\eclipse\\arm-gcc-49\\arm-none-eabi\\include\\machine\\_default_types.h"
 379              	 .file 6 "d:\\infineon\\tools\\dave ide\\4.5.0.202105191637\\eclipse\\arm-gcc-49\\arm-none-eabi\\include\\stdint.h"
 380              	 .file 7 "D:/Infineon/Tools/DAVE IDE/4.5.0.202105191637/eclipse/workspace/XMC4300-app/Libraries/XMCLib/inc/xmc4_gpio.h"
 381              	 .file 8 "D:/Infineon/Tools/DAVE IDE/4.5.0.202105191637/eclipse/workspace/XMC4300-app/BSP/bsp_485.h"
 382              	 .file 9 "D:/Infineon/Tools/DAVE IDE/4.5.0.202105191637/eclipse/workspace/XMC4300-app/Libraries/CMSIS/Include/core_cm4.h"
 383              	 .file 10 "D:/Infineon/Tools/DAVE IDE/4.5.0.202105191637/eclipse/workspace/XMC4300-app/Libraries/CMSIS/Infineon/XMC4300_series/Include/system_XMC4300.h"
 384              	 .file 11 "../SSC/Src/applInterface.h"
 385              	 .file 12 "D:/Infineon/Tools/DAVE IDE/4.5.0.202105191637/eclipse/workspace/XMC4300-app/Dave/Generated/DIGITAL_IO/digital_io_extern.h"