   1              	 .syntax unified
   2              	 .cpu cortex-m4
   3              	 .eabi_attribute 27,3
   4              	 .fpu fpv4-sp-d16
   5              	 .eabi_attribute 20,1
   6              	 .eabi_attribute 21,1
   7              	 .eabi_attribute 23,3
   8              	 .eabi_attribute 24,1
   9              	 .eabi_attribute 25,1
  10              	 .eabi_attribute 26,1
  11              	 .eabi_attribute 30,6
  12              	 .eabi_attribute 34,1
  13              	 .eabi_attribute 18,4
  14              	 .thumb
  15              	 .file "ecat_callback.c"
  16              	 .text
  17              	.Ltext0:
  18              	 .cfi_sections .debug_frame
  19              	 .section .text.DeviceConfig_CalcChecksum,"ax",%progbits
  20              	 .align 2
  21              	 .thumb
  22              	 .thumb_func
  24              	DeviceConfig_CalcChecksum:
  25              	.LFB135:
  26              	 .file 1 "D:/Infineon/Tools/DAVE IDE/4.5.0.202105191637/eclipse/workspace/XMC4300-app/BSP/shared_conf.h"
   1:D:/Infineon/Tools/DAVE IDE/4.5.0.202105191637/eclipse/workspace/XMC4300-app/BSP\shared_conf.h **** #ifndef SHARED_CONF_H_
   2:D:/Infineon/Tools/DAVE IDE/4.5.0.202105191637/eclipse/workspace/XMC4300-app/BSP\shared_conf.h **** #define SHARED_CONF_H_
   3:D:/Infineon/Tools/DAVE IDE/4.5.0.202105191637/eclipse/workspace/XMC4300-app/BSP\shared_conf.h **** 
   4:D:/Infineon/Tools/DAVE IDE/4.5.0.202105191637/eclipse/workspace/XMC4300-app/BSP\shared_conf.h **** #include <stdint.h>
   5:D:/Infineon/Tools/DAVE IDE/4.5.0.202105191637/eclipse/workspace/XMC4300-app/BSP\shared_conf.h **** 
   6:D:/Infineon/Tools/DAVE IDE/4.5.0.202105191637/eclipse/workspace/XMC4300-app/BSP\shared_conf.h **** /* ==============================================================
   7:D:/Infineon/Tools/DAVE IDE/4.5.0.202105191637/eclipse/workspace/XMC4300-app/BSP\shared_conf.h ****  * 1. Flash тєЁтГўтю░тЏЙт«џС╣Ѕ (Total 256KB Flash)
   8:D:/Infineon/Tools/DAVE IDE/4.5.0.202105191637/eclipse/workspace/XMC4300-app/BSP\shared_conf.h ****  * 
   9:D:/Infineon/Tools/DAVE IDE/4.5.0.202105191637/eclipse/workspace/XMC4300-app/BSP\shared_conf.h ****  * XMC4300 Flash ТЅЄтї║тИЃт▒ђ (Т»ЈТЅЄтї║ 16KB):
  10:D:/Infineon/Tools/DAVE IDE/4.5.0.202105191637/eclipse/workspace/XMC4300-app/BSP\shared_conf.h ****  *   - S0-S5 (96KB):  Bootloader С╗БуаЂ
  11:D:/Infineon/Tools/DAVE IDE/4.5.0.202105191637/eclipse/workspace/XMC4300-app/BSP\shared_conf.h ****  *   - S6-S7 (32KB):  EEPROM С╗┐уюЪтї║тЪЪ (SharedConfig уГЅ)
  12:D:/Infineon/Tools/DAVE IDE/4.5.0.202105191637/eclipse/workspace/XMC4300-app/BSP\shared_conf.h ****  *   - S8    (128KB): Application С╗БуаЂ
  13:D:/Infineon/Tools/DAVE IDE/4.5.0.202105191637/eclipse/workspace/XMC4300-app/BSP\shared_conf.h ****  *
  14:D:/Infineon/Tools/DAVE IDE/4.5.0.202105191637/eclipse/workspace/XMC4300-app/BSP\shared_conf.h ****  * тю░тЮђТўат░ё:
  15:D:/Infineon/Tools/DAVE IDE/4.5.0.202105191637/eclipse/workspace/XMC4300-app/BSP\shared_conf.h ****  *   - Cached (0x08...): ућеС║јС╗БуаЂТЅДУАїтњїТЋ░ТЇ«У»╗тЈќ
  16:D:/Infineon/Tools/DAVE IDE/4.5.0.202105191637/eclipse/workspace/XMC4300-app/BSP\shared_conf.h ****  *   - Uncached (0x0C...): ућеС║ј Flash у╝ќуеІ/ТЊджЎцТЊЇСйю
  17:D:/Infineon/Tools/DAVE IDE/4.5.0.202105191637/eclipse/workspace/XMC4300-app/BSP\shared_conf.h ****  * ============================================================== */
  18:D:/Infineon/Tools/DAVE IDE/4.5.0.202105191637/eclipse/workspace/XMC4300-app/BSP\shared_conf.h **** 
  19:D:/Infineon/Tools/DAVE IDE/4.5.0.202105191637/eclipse/workspace/XMC4300-app/BSP\shared_conf.h **** /* --- Bootloader тї║тЪЪ (96KB, S0-S5) --- */
  20:D:/Infineon/Tools/DAVE IDE/4.5.0.202105191637/eclipse/workspace/XMC4300-app/BSP\shared_conf.h **** #define BOOT_START_ADDR         0x08000000UL
  21:D:/Infineon/Tools/DAVE IDE/4.5.0.202105191637/eclipse/workspace/XMC4300-app/BSP\shared_conf.h **** #define BOOT_START_ADDR_UC      0x0C000000UL
  22:D:/Infineon/Tools/DAVE IDE/4.5.0.202105191637/eclipse/workspace/XMC4300-app/BSP\shared_conf.h **** #define BOOT_SIZE               0x00018000UL  // 96 KB (6 sectors * 16KB)
  23:D:/Infineon/Tools/DAVE IDE/4.5.0.202105191637/eclipse/workspace/XMC4300-app/BSP\shared_conf.h **** #define BOOT_END_ADDR           (BOOT_START_ADDR + BOOT_SIZE - 1)
  24:D:/Infineon/Tools/DAVE IDE/4.5.0.202105191637/eclipse/workspace/XMC4300-app/BSP\shared_conf.h **** 
  25:D:/Infineon/Tools/DAVE IDE/4.5.0.202105191637/eclipse/workspace/XMC4300-app/BSP\shared_conf.h **** /* --- EEPROM С╗┐уюЪтї║тЪЪ (32KB, S6-S7) --- */
  26:D:/Infineon/Tools/DAVE IDE/4.5.0.202105191637/eclipse/workspace/XMC4300-app/BSP\shared_conf.h **** #define EEPROM_START_ADDR       0x0C018000UL  // Uncached тю░тЮђ№╝ѕућеС║јтєЎтЁЦ/ТЊджЎц№╝Ѕ
  27:D:/Infineon/Tools/DAVE IDE/4.5.0.202105191637/eclipse/workspace/XMC4300-app/BSP\shared_conf.h **** #define EEPROM_START_ADDR_RD    0x08018000UL  // Cached тю░тЮђ№╝ѕућеС║јУ»╗тЈќ№╝Ѕ
  28:D:/Infineon/Tools/DAVE IDE/4.5.0.202105191637/eclipse/workspace/XMC4300-app/BSP\shared_conf.h **** #define EEPROM_SIZE             0x00008000UL  // 32 KB (2 sectors * 16KB)
  29:D:/Infineon/Tools/DAVE IDE/4.5.0.202105191637/eclipse/workspace/XMC4300-app/BSP\shared_conf.h **** #define EEPROM_END_ADDR         (EEPROM_START_ADDR + EEPROM_SIZE - 1)
  30:D:/Infineon/Tools/DAVE IDE/4.5.0.202105191637/eclipse/workspace/XMC4300-app/BSP\shared_conf.h **** 
  31:D:/Infineon/Tools/DAVE IDE/4.5.0.202105191637/eclipse/workspace/XMC4300-app/BSP\shared_conf.h **** /* --- App тї║тЪЪ (128KB, S8) --- */
  32:D:/Infineon/Tools/DAVE IDE/4.5.0.202105191637/eclipse/workspace/XMC4300-app/BSP\shared_conf.h **** #define APP_START_ADDR          0x0C020000UL  // Uncached тю░тЮђ№╝ѕућеС║јтєЎтЁЦ№╝Ѕ
  33:D:/Infineon/Tools/DAVE IDE/4.5.0.202105191637/eclipse/workspace/XMC4300-app/BSP\shared_conf.h **** #define APP_START_ADDR_RD       0x08020000UL  // Cached тю░тЮђ№╝ѕућеС║јУ»╗тЈќ/ТЅДУАї№╝Ѕ
  34:D:/Infineon/Tools/DAVE IDE/4.5.0.202105191637/eclipse/workspace/XMC4300-app/BSP\shared_conf.h **** #define APP_MAX_SIZE            0x00020000UL  // 128 KB
  35:D:/Infineon/Tools/DAVE IDE/4.5.0.202105191637/eclipse/workspace/XMC4300-app/BSP\shared_conf.h **** #define APP_END_ADDR            (APP_START_ADDR + APP_MAX_SIZE - 1)
  36:D:/Infineon/Tools/DAVE IDE/4.5.0.202105191637/eclipse/workspace/XMC4300-app/BSP\shared_conf.h **** 
  37:D:/Infineon/Tools/DAVE IDE/4.5.0.202105191637/eclipse/workspace/XMC4300-app/BSP\shared_conf.h **** /* ==============================================================
  38:D:/Infineon/Tools/DAVE IDE/4.5.0.202105191637/eclipse/workspace/XMC4300-app/BSP\shared_conf.h ****  * 1.5. RAM ТаЄт┐ЌСйЇ (ућеС║јтї║тѕєУй»С╗ХтцЇСйЇтњїТќГућхжЄЇтљ»)
  39:D:/Infineon/Tools/DAVE IDE/4.5.0.202105191637/eclipse/workspace/XMC4300-app/BSP\shared_conf.h ****  * 
  40:D:/Infineon/Tools/DAVE IDE/4.5.0.202105191637/eclipse/workspace/XMC4300-app/BSP\shared_conf.h ****  * тјЪуљє№╝џ
  41:D:/Infineon/Tools/DAVE IDE/4.5.0.202105191637/eclipse/workspace/XMC4300-app/BSP\shared_conf.h ****  *   - Уй»С╗ХтцЇСйЇ (NVIC_SystemReset): RAM ТЋ░ТЇ«С┐ЮуЋЎ
  42:D:/Infineon/Tools/DAVE IDE/4.5.0.202105191637/eclipse/workspace/XMC4300-app/BSP\shared_conf.h ****  *   - ТќГућхжЄЇтљ»: RAM ТЋ░ТЇ«СИбтц▒ (тЈўТѕљжџЈТю║тђ╝)
  43:D:/Infineon/Tools/DAVE IDE/4.5.0.202105191637/eclipse/workspace/XMC4300-app/BSP\shared_conf.h ****  * 
  44:D:/Infineon/Tools/DAVE IDE/4.5.0.202105191637/eclipse/workspace/XMC4300-app/BSP\shared_conf.h ****  * Сй┐уће .noinit Т«х№╝џ
  45:D:/Infineon/Tools/DAVE IDE/4.5.0.202105191637/eclipse/workspace/XMC4300-app/BSP\shared_conf.h ****  *   - у╝ќУ»ЉтЎеУЄфтіетѕєжЁЇтю░тЮђ
  46:D:/Infineon/Tools/DAVE IDE/4.5.0.202105191637/eclipse/workspace/XMC4300-app/BSP\shared_conf.h ****  *   - тљ»тіеС╗БуаЂСИЇС╝џТИЁжЏХУ┐ЎСИфтЈўжЄЈ
  47:D:/Infineon/Tools/DAVE IDE/4.5.0.202105191637/eclipse/workspace/XMC4300-app/BSP\shared_conf.h ****  *   - Boot тњї App жЃйт┐ЁжА╗т«џС╣ЅУ┐ЎСИфтЈўжЄЈ№╝ѕтљїтљЇтљїТ«х№╝Ѕ
  48:D:/Infineon/Tools/DAVE IDE/4.5.0.202105191637/eclipse/workspace/XMC4300-app/BSP\shared_conf.h ****  * ============================================================== */
  49:D:/Infineon/Tools/DAVE IDE/4.5.0.202105191637/eclipse/workspace/XMC4300-app/BSP\shared_conf.h **** 
  50:D:/Infineon/Tools/DAVE IDE/4.5.0.202105191637/eclipse/workspace/XMC4300-app/BSP\shared_conf.h **** #define RAM_MAGIC_VAL  0xB007B007UL  // "BOOTBOOT" уџёТЋ░тГЌтїќУАеуц║
  51:D:/Infineon/Tools/DAVE IDE/4.5.0.202105191637/eclipse/workspace/XMC4300-app/BSP\shared_conf.h **** 
  52:D:/Infineon/Tools/DAVE IDE/4.5.0.202105191637/eclipse/workspace/XMC4300-app/BSP\shared_conf.h **** /* 
  53:D:/Infineon/Tools/DAVE IDE/4.5.0.202105191637/eclipse/workspace/XMC4300-app/BSP\shared_conf.h ****  * Т│еТёЈ№╝џУ┐ЎСИфтЈўжЄЈтюе Boot тњї App СИГжЃйжюђУдЂт«џС╣ЅСИђТгА№╝ѕСИЇУЃйтЈфтюетц┤ТќЄС╗ХтБ░Тўј№╝Ѕ
  54:D:/Infineon/Tools/DAVE IDE/4.5.0.202105191637/eclipse/workspace/XMC4300-app/BSP\shared_conf.h ****  * тюетљёУЄфуџё main.c Тѕќ app_init.c / boot_init.c СИГТи╗тіа№╝џ
  55:D:/Infineon/Tools/DAVE IDE/4.5.0.202105191637/eclipse/workspace/XMC4300-app/BSP\shared_conf.h ****  * uint32_t g_RamMagicFlag __attribute__((section(".noinit")));
  56:D:/Infineon/Tools/DAVE IDE/4.5.0.202105191637/eclipse/workspace/XMC4300-app/BSP\shared_conf.h ****  */
  57:D:/Infineon/Tools/DAVE IDE/4.5.0.202105191637/eclipse/workspace/XMC4300-app/BSP\shared_conf.h **** 
  58:D:/Infineon/Tools/DAVE IDE/4.5.0.202105191637/eclipse/workspace/XMC4300-app/BSP\shared_conf.h **** /* ==============================================================
  59:D:/Infineon/Tools/DAVE IDE/4.5.0.202105191637/eclipse/workspace/XMC4300-app/BSP\shared_conf.h ****  * 2. SharedConfig тюе EEPROM СИГуџётГўтѓетИЃт▒ђ
  60:D:/Infineon/Tools/DAVE IDE/4.5.0.202105191637/eclipse/workspace/XMC4300-app/BSP\shared_conf.h ****  * 
  61:D:/Infineon/Tools/DAVE IDE/4.5.0.202105191637/eclipse/workspace/XMC4300-app/BSP\shared_conf.h ****  * E_EEPROM_XMC4 Сй┐ућетЮЌтЙфуј»У«АТЋ░ + CRC Тќ╣т╝Ју«АуљєТЋ░ТЇ«№╝ї
  62:D:/Infineon/Tools/DAVE IDE/4.5.0.202105191637/eclipse/workspace/XMC4300-app/BSP\shared_conf.h ****  * ТѕЉС╗гуџё SharedConfig_t (13 тГЌУіѓ) тГўтѓетюе EEPROM ТЋ░ТЇ«тї║уџёт╝ђтц┤сђѓ
  63:D:/Infineon/Tools/DAVE IDE/4.5.0.202105191637/eclipse/workspace/XMC4300-app/BSP\shared_conf.h ****  * 
  64:D:/Infineon/Tools/DAVE IDE/4.5.0.202105191637/eclipse/workspace/XMC4300-app/BSP\shared_conf.h ****  * ТЋ░ТЇ«тЮЌтИЃт▒ђ (тЂЄУ«Й DATA_BLOCK_SIZE = 2048):
  65:D:/Infineon/Tools/DAVE IDE/4.5.0.202105191637/eclipse/workspace/XMC4300-app/BSP\shared_conf.h ****  *   - Offset 0x00:  SharedConfig_t (13 тГЌУіѓ)
  66:D:/Infineon/Tools/DAVE IDE/4.5.0.202105191637/eclipse/workspace/XMC4300-app/BSP\shared_conf.h ****  *   - Offset 0x10+: тЁХС╗ќућеТѕиТЋ░ТЇ« (тЈ»ТЅЕт▒Ћ)
  67:D:/Infineon/Tools/DAVE IDE/4.5.0.202105191637/eclipse/workspace/XMC4300-app/BSP\shared_conf.h ****  * ============================================================== */
  68:D:/Infineon/Tools/DAVE IDE/4.5.0.202105191637/eclipse/workspace/XMC4300-app/BSP\shared_conf.h **** 
  69:D:/Infineon/Tools/DAVE IDE/4.5.0.202105191637/eclipse/workspace/XMC4300-app/BSP\shared_conf.h **** /* SharedConfig_t тюе E_EEPROM ТЋ░ТЇ«тї║СИГуџётЂЈуД╗тю░тЮђ */
  70:D:/Infineon/Tools/DAVE IDE/4.5.0.202105191637/eclipse/workspace/XMC4300-app/BSP\shared_conf.h **** /* EtherCAT SII ТЋ░ТЇ«жђџтИИтЇаућетЅЇ 0x800 тГЌУіѓ№╝їтЏаТГцТѕЉС╗гт░є SharedConfig уД╗тѕ░ 0x1000 (4K
  71:D:/Infineon/Tools/DAVE IDE/4.5.0.202105191637/eclipse/workspace/XMC4300-app/BSP\shared_conf.h **** #define SHARED_CONFIG_EEPROM_OFFSET    0x1000U
  72:D:/Infineon/Tools/DAVE IDE/4.5.0.202105191637/eclipse/workspace/XMC4300-app/BSP\shared_conf.h **** 
  73:D:/Infineon/Tools/DAVE IDE/4.5.0.202105191637/eclipse/workspace/XMC4300-app/BSP\shared_conf.h **** /* ==============================================================
  74:D:/Infineon/Tools/DAVE IDE/4.5.0.202105191637/eclipse/workspace/XMC4300-app/BSP\shared_conf.h ****  * 3. тЁ▒С║ФжЁЇуй«у╗ЊТъёСйЊт«џС╣Ѕ
  75:D:/Infineon/Tools/DAVE IDE/4.5.0.202105191637/eclipse/workspace/XMC4300-app/BSP\shared_conf.h ****  * ============================================================== */
  76:D:/Infineon/Tools/DAVE IDE/4.5.0.202105191637/eclipse/workspace/XMC4300-app/BSP\shared_conf.h **** 
  77:D:/Infineon/Tools/DAVE IDE/4.5.0.202105191637/eclipse/workspace/XMC4300-app/BSP\shared_conf.h **** #define SHARED_MAGIC_VALID      0x5AA5A55AUL  // App ТюЅТЋѕТаЄт┐Ќ
  78:D:/Infineon/Tools/DAVE IDE/4.5.0.202105191637/eclipse/workspace/XMC4300-app/BSP\shared_conf.h **** 
  79:D:/Infineon/Tools/DAVE IDE/4.5.0.202105191637/eclipse/workspace/XMC4300-app/BSP\shared_conf.h **** typedef struct {
  80:D:/Infineon/Tools/DAVE IDE/4.5.0.202105191637/eclipse/workspace/XMC4300-app/BSP\shared_conf.h ****     uint32_t MagicHeader;       // 0x00: VALID, REQUEST, Тѕќ 0xFFFFFFFF
  81:D:/Infineon/Tools/DAVE IDE/4.5.0.202105191637/eclipse/workspace/XMC4300-app/BSP\shared_conf.h ****     uint32_t AppActualSize;     // 0x04: App т«ъжЎЁтцДт░Ј
  82:D:/Infineon/Tools/DAVE IDE/4.5.0.202105191637/eclipse/workspace/XMC4300-app/BSP\shared_conf.h ****     uint32_t AppCRC32;          // 0x08: CRC32 ТаАжфїтђ╝
  83:D:/Infineon/Tools/DAVE IDE/4.5.0.202105191637/eclipse/workspace/XMC4300-app/BSP\shared_conf.h ****     uint8_t  Checksum;          // 0x0C: тЅЇжЮбТЅђТюЅтГЌУіѓуџё 8 СйЇу┤»тіатњї
  84:D:/Infineon/Tools/DAVE IDE/4.5.0.202105191637/eclipse/workspace/XMC4300-app/BSP\shared_conf.h **** } __attribute__((packed)) SharedConfig_t;
  85:D:/Infineon/Tools/DAVE IDE/4.5.0.202105191637/eclipse/workspace/XMC4300-app/BSP\shared_conf.h **** 
  86:D:/Infineon/Tools/DAVE IDE/4.5.0.202105191637/eclipse/workspace/XMC4300-app/BSP\shared_conf.h **** /* У«Ау«ЌТаАжфїтњї (СИЇтїЁтљФ Checksum тГЌТ«хТюгУ║Ф) */
  87:D:/Infineon/Tools/DAVE IDE/4.5.0.202105191637/eclipse/workspace/XMC4300-app/BSP\shared_conf.h **** static inline uint8_t SharedConfig_CalcChecksum(const SharedConfig_t *cfg)
  88:D:/Infineon/Tools/DAVE IDE/4.5.0.202105191637/eclipse/workspace/XMC4300-app/BSP\shared_conf.h **** {
  89:D:/Infineon/Tools/DAVE IDE/4.5.0.202105191637/eclipse/workspace/XMC4300-app/BSP\shared_conf.h ****     const uint8_t *p = (const uint8_t *)cfg;
  90:D:/Infineon/Tools/DAVE IDE/4.5.0.202105191637/eclipse/workspace/XMC4300-app/BSP\shared_conf.h ****     uint8_t sum = 0;
  91:D:/Infineon/Tools/DAVE IDE/4.5.0.202105191637/eclipse/workspace/XMC4300-app/BSP\shared_conf.h ****     for (uint16_t i = 0; i < sizeof(SharedConfig_t) - 1; i++) {
  92:D:/Infineon/Tools/DAVE IDE/4.5.0.202105191637/eclipse/workspace/XMC4300-app/BSP\shared_conf.h ****         sum += p[i];
  93:D:/Infineon/Tools/DAVE IDE/4.5.0.202105191637/eclipse/workspace/XMC4300-app/BSP\shared_conf.h ****     }
  94:D:/Infineon/Tools/DAVE IDE/4.5.0.202105191637/eclipse/workspace/XMC4300-app/BSP\shared_conf.h ****     return sum;
  95:D:/Infineon/Tools/DAVE IDE/4.5.0.202105191637/eclipse/workspace/XMC4300-app/BSP\shared_conf.h **** }
  96:D:/Infineon/Tools/DAVE IDE/4.5.0.202105191637/eclipse/workspace/XMC4300-app/BSP\shared_conf.h **** 
  97:D:/Infineon/Tools/DAVE IDE/4.5.0.202105191637/eclipse/workspace/XMC4300-app/BSP\shared_conf.h **** /* ТаАжфїу╗ЊТъёСйЊТў»тљдТюЅТЋѕ */
  98:D:/Infineon/Tools/DAVE IDE/4.5.0.202105191637/eclipse/workspace/XMC4300-app/BSP\shared_conf.h **** static inline uint8_t SharedConfig_IsValid(const SharedConfig_t *cfg)
  99:D:/Infineon/Tools/DAVE IDE/4.5.0.202105191637/eclipse/workspace/XMC4300-app/BSP\shared_conf.h **** {
 100:D:/Infineon/Tools/DAVE IDE/4.5.0.202105191637/eclipse/workspace/XMC4300-app/BSP\shared_conf.h ****     return (cfg->Checksum == SharedConfig_CalcChecksum(cfg));
 101:D:/Infineon/Tools/DAVE IDE/4.5.0.202105191637/eclipse/workspace/XMC4300-app/BSP\shared_conf.h **** }
 102:D:/Infineon/Tools/DAVE IDE/4.5.0.202105191637/eclipse/workspace/XMC4300-app/BSP\shared_conf.h **** 
 103:D:/Infineon/Tools/DAVE IDE/4.5.0.202105191637/eclipse/workspace/XMC4300-app/BSP\shared_conf.h **** /* ==============================================================
 104:D:/Infineon/Tools/DAVE IDE/4.5.0.202105191637/eclipse/workspace/XMC4300-app/BSP\shared_conf.h ****  * 4. У«ЙтцЄжЁЇуй«у╗ЊТъёСйЊ (0x8000 т»╣У▒А)
 105:D:/Infineon/Tools/DAVE IDE/4.5.0.202105191637/eclipse/workspace/XMC4300-app/BSP\shared_conf.h ****  * 
 106:D:/Infineon/Tools/DAVE IDE/4.5.0.202105191637/eclipse/workspace/XMC4300-app/BSP\shared_conf.h ****  * СИј SSC уџё TOBJ8000 у╗ЊТъёСйЊт»╣т║ћ№╝їтГўтѓетюе EEPROM СИГсђѓ
 107:D:/Infineon/Tools/DAVE IDE/4.5.0.202105191637/eclipse/workspace/XMC4300-app/BSP\shared_conf.h ****  * жђџУ┐Є TwinCAT CoE У»╗тєЎТЌХ№╝їтљїТГЦтѕ░ EEPROMсђѓ
 108:D:/Infineon/Tools/DAVE IDE/4.5.0.202105191637/eclipse/workspace/XMC4300-app/BSP\shared_conf.h ****  * ============================================================== */
 109:D:/Infineon/Tools/DAVE IDE/4.5.0.202105191637/eclipse/workspace/XMC4300-app/BSP\shared_conf.h **** 
 110:D:/Infineon/Tools/DAVE IDE/4.5.0.202105191637/eclipse/workspace/XMC4300-app/BSP\shared_conf.h **** #define DEVICE_CONFIG_EEPROM_OFFSET    0x1100U  // SharedConfig С╣Ітљј (0x1000 + 256)
 111:D:/Infineon/Tools/DAVE IDE/4.5.0.202105191637/eclipse/workspace/XMC4300-app/BSP\shared_conf.h **** #define DEVICE_CONFIG_MAGIC            0xDE01CF6UL // жГћТЋ░ТаЄУ»є "DEV1CFG"
 112:D:/Infineon/Tools/DAVE IDE/4.5.0.202105191637/eclipse/workspace/XMC4300-app/BSP\shared_conf.h **** 
 113:D:/Infineon/Tools/DAVE IDE/4.5.0.202105191637/eclipse/workspace/XMC4300-app/BSP\shared_conf.h **** typedef struct {
 114:D:/Infineon/Tools/DAVE IDE/4.5.0.202105191637/eclipse/workspace/XMC4300-app/BSP\shared_conf.h ****     uint32_t Magic;             // жГћТЋ░ТаЄУ»є (DEVICE_CONFIG_MAGIC)
 115:D:/Infineon/Tools/DAVE IDE/4.5.0.202105191637/eclipse/workspace/XMC4300-app/BSP\shared_conf.h ****     char     Name[32];          // SubIndex 1: У«ЙтцЄтљЇуД░
 116:D:/Infineon/Tools/DAVE IDE/4.5.0.202105191637/eclipse/workspace/XMC4300-app/BSP\shared_conf.h ****     char     Hv[32];            // SubIndex 2: уАгС╗ХуЅѕТюг
 117:D:/Infineon/Tools/DAVE IDE/4.5.0.202105191637/eclipse/workspace/XMC4300-app/BSP\shared_conf.h ****     char     Sv[32];            // SubIndex 3: Уй»С╗ХуЅѕТюг
 118:D:/Infineon/Tools/DAVE IDE/4.5.0.202105191637/eclipse/workspace/XMC4300-app/BSP\shared_conf.h ****     char     Sn[32];            // SubIndex 4: т║ЈтѕЌтЈи
 119:D:/Infineon/Tools/DAVE IDE/4.5.0.202105191637/eclipse/workspace/XMC4300-app/BSP\shared_conf.h ****     uint32_t BuildTime;         // SubIndex 5: у╝ќУ»ЉТЌХжЌ┤
 120:D:/Infineon/Tools/DAVE IDE/4.5.0.202105191637/eclipse/workspace/XMC4300-app/BSP\shared_conf.h ****     uint32_t BR_canfd_ctrl;     // SubIndex 6: CANFD ТјДтѕХтЪЪТ│буЅ╣ујЄ
 121:D:/Infineon/Tools/DAVE IDE/4.5.0.202105191637/eclipse/workspace/XMC4300-app/BSP\shared_conf.h ****     uint32_t BR_canfd_data;     // SubIndex 7: CANFD ТЋ░ТЇ«тЪЪТ│буЅ╣ујЄ
 122:D:/Infineon/Tools/DAVE IDE/4.5.0.202105191637/eclipse/workspace/XMC4300-app/BSP\shared_conf.h ****     uint32_t BR_485;            // SubIndex 8: RS485 Т│буЅ╣ујЄ
 123:D:/Infineon/Tools/DAVE IDE/4.5.0.202105191637/eclipse/workspace/XMC4300-app/BSP\shared_conf.h ****     uint8_t  Use120;            // SubIndex 9: 120╬Еу╗ѕуФ»ућхжў╗
 124:D:/Infineon/Tools/DAVE IDE/4.5.0.202105191637/eclipse/workspace/XMC4300-app/BSP\shared_conf.h ****     uint8_t  Use485;            // SubIndex 10: 485уФ»тЈБжђЅТІЕ
 125:D:/Infineon/Tools/DAVE IDE/4.5.0.202105191637/eclipse/workspace/XMC4300-app/BSP\shared_conf.h ****     uint8_t  UseModbus;         // SubIndex 11: ModbusСй┐УЃй
 126:D:/Infineon/Tools/DAVE IDE/4.5.0.202105191637/eclipse/workspace/XMC4300-app/BSP\shared_conf.h ****     uint8_t  Reserved;          // SubIndex 12: С┐ЮуЋЎ
 127:D:/Infineon/Tools/DAVE IDE/4.5.0.202105191637/eclipse/workspace/XMC4300-app/BSP\shared_conf.h ****     char     DevID[8];          // SubIndex 13: У«ЙтцЄID (6тГЌУіѓ+2т»╣жйљ)
 128:D:/Infineon/Tools/DAVE IDE/4.5.0.202105191637/eclipse/workspace/XMC4300-app/BSP\shared_conf.h ****     uint8_t  Checksum;          // ТаАжфїтњї
 129:D:/Infineon/Tools/DAVE IDE/4.5.0.202105191637/eclipse/workspace/XMC4300-app/BSP\shared_conf.h **** } __attribute__((packed)) DeviceConfig_t;
 130:D:/Infineon/Tools/DAVE IDE/4.5.0.202105191637/eclipse/workspace/XMC4300-app/BSP\shared_conf.h **** 
 131:D:/Infineon/Tools/DAVE IDE/4.5.0.202105191637/eclipse/workspace/XMC4300-app/BSP\shared_conf.h **** /* У«Ау«Ќ DeviceConfig ТаАжфїтњї */
 132:D:/Infineon/Tools/DAVE IDE/4.5.0.202105191637/eclipse/workspace/XMC4300-app/BSP\shared_conf.h **** static inline uint8_t DeviceConfig_CalcChecksum(const DeviceConfig_t *cfg)
 133:D:/Infineon/Tools/DAVE IDE/4.5.0.202105191637/eclipse/workspace/XMC4300-app/BSP\shared_conf.h **** {
  27              	 .loc 1 133 0
  28              	 .cfi_startproc
  29              	 
  30              	 
  31              	 
  32 0000 80B4     	 push {r7}
  33              	.LCFI0:
  34              	 .cfi_def_cfa_offset 4
  35              	 .cfi_offset 7,-4
  36 0002 85B0     	 sub sp,sp,#20
  37              	.LCFI1:
  38              	 .cfi_def_cfa_offset 24
  39 0004 00AF     	 add r7,sp,#0
  40              	.LCFI2:
  41              	 .cfi_def_cfa_register 7
  42 0006 7860     	 str r0,[r7,#4]
 134:D:/Infineon/Tools/DAVE IDE/4.5.0.202105191637/eclipse/workspace/XMC4300-app/BSP\shared_conf.h ****     const uint8_t *p = (const uint8_t *)cfg;
  43              	 .loc 1 134 0
  44 0008 7B68     	 ldr r3,[r7,#4]
  45 000a BB60     	 str r3,[r7,#8]
 135:D:/Infineon/Tools/DAVE IDE/4.5.0.202105191637/eclipse/workspace/XMC4300-app/BSP\shared_conf.h ****     uint8_t sum = 0;
  46              	 .loc 1 135 0
  47 000c 0023     	 movs r3,#0
  48 000e FB73     	 strb r3,[r7,#15]
  49              	.LBB2:
 136:D:/Infineon/Tools/DAVE IDE/4.5.0.202105191637/eclipse/workspace/XMC4300-app/BSP\shared_conf.h ****     for (uint16_t i = 0; i < sizeof(DeviceConfig_t) - 1; i++) {
  50              	 .loc 1 136 0
  51 0010 0023     	 movs r3,#0
  52 0012 BB81     	 strh r3,[r7,#12]
  53 0014 09E0     	 b .L2
  54              	.L3:
 137:D:/Infineon/Tools/DAVE IDE/4.5.0.202105191637/eclipse/workspace/XMC4300-app/BSP\shared_conf.h ****         sum += p[i];
  55              	 .loc 1 137 0 discriminator 3
  56 0016 BB89     	 ldrh r3,[r7,#12]
  57 0018 BA68     	 ldr r2,[r7,#8]
  58 001a 1344     	 add r3,r3,r2
  59 001c 1A78     	 ldrb r2,[r3]
  60 001e FB7B     	 ldrb r3,[r7,#15]
  61 0020 1344     	 add r3,r3,r2
  62 0022 FB73     	 strb r3,[r7,#15]
 136:D:/Infineon/Tools/DAVE IDE/4.5.0.202105191637/eclipse/workspace/XMC4300-app/BSP\shared_conf.h ****     for (uint16_t i = 0; i < sizeof(DeviceConfig_t) - 1; i++) {
  63              	 .loc 1 136 0 discriminator 3
  64 0024 BB89     	 ldrh r3,[r7,#12]
  65 0026 0133     	 adds r3,r3,#1
  66 0028 BB81     	 strh r3,[r7,#12]
  67              	.L2:
 136:D:/Infineon/Tools/DAVE IDE/4.5.0.202105191637/eclipse/workspace/XMC4300-app/BSP\shared_conf.h ****     for (uint16_t i = 0; i < sizeof(DeviceConfig_t) - 1; i++) {
  68              	 .loc 1 136 0 is_stmt 0 discriminator 1
  69 002a BB89     	 ldrh r3,[r7,#12]
  70 002c 9F2B     	 cmp r3,#159
  71 002e F2D9     	 bls .L3
  72              	.LBE2:
 138:D:/Infineon/Tools/DAVE IDE/4.5.0.202105191637/eclipse/workspace/XMC4300-app/BSP\shared_conf.h ****     }
 139:D:/Infineon/Tools/DAVE IDE/4.5.0.202105191637/eclipse/workspace/XMC4300-app/BSP\shared_conf.h ****     return sum;
  73              	 .loc 1 139 0 is_stmt 1
  74 0030 FB7B     	 ldrb r3,[r7,#15]
 140:D:/Infineon/Tools/DAVE IDE/4.5.0.202105191637/eclipse/workspace/XMC4300-app/BSP\shared_conf.h **** }
  75              	 .loc 1 140 0
  76 0032 1846     	 mov r0,r3
  77 0034 1437     	 adds r7,r7,#20
  78              	.LCFI3:
  79              	 .cfi_def_cfa_offset 4
  80 0036 BD46     	 mov sp,r7
  81              	.LCFI4:
  82              	 .cfi_def_cfa_register 13
  83              	 
  84 0038 5DF8047B 	 ldr r7,[sp],#4
  85              	.LCFI5:
  86              	 .cfi_restore 7
  87              	 .cfi_def_cfa_offset 0
  88 003c 7047     	 bx lr
  89              	 .cfi_endproc
  90              	.LFE135:
  92 003e 00BF     	 .section .text.DeviceConfig_IsValid,"ax",%progbits
  93              	 .align 2
  94              	 .thumb
  95              	 .thumb_func
  97              	DeviceConfig_IsValid:
  98              	.LFB136:
 141:D:/Infineon/Tools/DAVE IDE/4.5.0.202105191637/eclipse/workspace/XMC4300-app/BSP\shared_conf.h **** 
 142:D:/Infineon/Tools/DAVE IDE/4.5.0.202105191637/eclipse/workspace/XMC4300-app/BSP\shared_conf.h **** /* ТаАжфї DeviceConfig Тў»тљдТюЅТЋѕ */
 143:D:/Infineon/Tools/DAVE IDE/4.5.0.202105191637/eclipse/workspace/XMC4300-app/BSP\shared_conf.h **** static inline uint8_t DeviceConfig_IsValid(const DeviceConfig_t *cfg)
 144:D:/Infineon/Tools/DAVE IDE/4.5.0.202105191637/eclipse/workspace/XMC4300-app/BSP\shared_conf.h **** {
  99              	 .loc 1 144 0
 100              	 .cfi_startproc
 101              	 
 102              	 
 103 0000 90B5     	 push {r4,r7,lr}
 104              	.LCFI6:
 105              	 .cfi_def_cfa_offset 12
 106              	 .cfi_offset 4,-12
 107              	 .cfi_offset 7,-8
 108              	 .cfi_offset 14,-4
 109 0002 83B0     	 sub sp,sp,#12
 110              	.LCFI7:
 111              	 .cfi_def_cfa_offset 24
 112 0004 00AF     	 add r7,sp,#0
 113              	.LCFI8:
 114              	 .cfi_def_cfa_register 7
 115 0006 7860     	 str r0,[r7,#4]
 145:D:/Infineon/Tools/DAVE IDE/4.5.0.202105191637/eclipse/workspace/XMC4300-app/BSP\shared_conf.h ****     return (cfg->Magic == DEVICE_CONFIG_MAGIC) && 
 116              	 .loc 1 145 0
 117 0008 7B68     	 ldr r3,[r7,#4]
 118 000a 1B68     	 ldr r3,[r3]
 119 000c 094A     	 ldr r2,.L9
 120 000e 9342     	 cmp r3,r2
 121 0010 0AD1     	 bne .L6
 146:D:/Infineon/Tools/DAVE IDE/4.5.0.202105191637/eclipse/workspace/XMC4300-app/BSP\shared_conf.h ****            (cfg->Checksum == DeviceConfig_CalcChecksum(cfg));
 122              	 .loc 1 146 0 discriminator 1
 123 0012 7B68     	 ldr r3,[r7,#4]
 124 0014 93F8A040 	 ldrb r4,[r3,#160]
 125 0018 7868     	 ldr r0,[r7,#4]
 126 001a FFF7FEFF 	 bl DeviceConfig_CalcChecksum
 127 001e 0346     	 mov r3,r0
 145:D:/Infineon/Tools/DAVE IDE/4.5.0.202105191637/eclipse/workspace/XMC4300-app/BSP\shared_conf.h ****     return (cfg->Magic == DEVICE_CONFIG_MAGIC) && 
 128              	 .loc 1 145 0 discriminator 1
 129 0020 9C42     	 cmp r4,r3
 130 0022 01D1     	 bne .L6
 145:D:/Infineon/Tools/DAVE IDE/4.5.0.202105191637/eclipse/workspace/XMC4300-app/BSP\shared_conf.h ****     return (cfg->Magic == DEVICE_CONFIG_MAGIC) && 
 131              	 .loc 1 145 0 is_stmt 0 discriminator 3
 132 0024 0123     	 movs r3,#1
 133 0026 00E0     	 b .L7
 134              	.L6:
 145:D:/Infineon/Tools/DAVE IDE/4.5.0.202105191637/eclipse/workspace/XMC4300-app/BSP\shared_conf.h ****     return (cfg->Magic == DEVICE_CONFIG_MAGIC) && 
 135              	 .loc 1 145 0 discriminator 4
 136 0028 0023     	 movs r3,#0
 137              	.L7:
 145:D:/Infineon/Tools/DAVE IDE/4.5.0.202105191637/eclipse/workspace/XMC4300-app/BSP\shared_conf.h ****     return (cfg->Magic == DEVICE_CONFIG_MAGIC) && 
 138              	 .loc 1 145 0 discriminator 6
 139 002a DBB2     	 uxtb r3,r3
 147:D:/Infineon/Tools/DAVE IDE/4.5.0.202105191637/eclipse/workspace/XMC4300-app/BSP\shared_conf.h **** }
 140              	 .loc 1 147 0 is_stmt 1 discriminator 6
 141 002c 1846     	 mov r0,r3
 142 002e 0C37     	 adds r7,r7,#12
 143              	.LCFI9:
 144              	 .cfi_def_cfa_offset 12
 145 0030 BD46     	 mov sp,r7
 146              	.LCFI10:
 147              	 .cfi_def_cfa_register 13
 148              	 
 149 0032 90BD     	 pop {r4,r7,pc}
 150              	.L10:
 151              	 .align 2
 152              	.L9:
 153 0034 F61CE00D 	 .word 232791286
 154              	 .cfi_endproc
 155              	.LFE136:
 157              	 .comm s_DevConfig,161,4
 158              	 .global s_DevConfigValid
 159              	 .section .bss.s_DevConfigValid,"aw",%nobits
 162              	s_DevConfigValid:
 163 0000 00       	 .space 1
 164              	 .section .text.WriteDevInfo,"ax",%progbits
 165              	 .align 2
 166              	 .global WriteDevInfo
 167              	 .thumb
 168              	 .thumb_func
 170              	WriteDevInfo:
 171              	.LFB479:
 172              	 .file 2 "../Application/ecat_callback.c"
   1:../Application/ecat_callback.c **** #include "ecat_callback.h"
   2:../Application/ecat_callback.c **** #include "ryhandObjects.h"      /* тїЁтљФ DevInfo0x8000 т«џС╣Ѕ */
   3:../Application/ecat_callback.c **** #include "BSP/bsp_485.h"        /* тїЁтљФ 485 жЕ▒тіеТјЦтЈБ */
   4:../Application/ecat_callback.c **** #include "Dave/Generated/E_EEPROM_XMC4/e_eeprom_xmc4.h" /* */
   5:../Application/ecat_callback.c **** #include <string.h>
   6:../Application/ecat_callback.c **** #include "shared_conf.h"
   7:../Application/ecat_callback.c **** #include "dev_config.h"
   8:../Application/ecat_callback.c **** #include "DAVE.h"
   9:../Application/ecat_callback.c **** 
  10:../Application/ecat_callback.c **** /* У«ЙтцЄжЁЇуй« (С╗ј EEPROM У»╗тЈќ) */
  11:../Application/ecat_callback.c **** DeviceConfig_t s_DevConfig;
  12:../Application/ecat_callback.c **** uint8_t s_DevConfigValid = 0;
  13:../Application/ecat_callback.c **** /* тЂЄУ«Йтюе E_EEPROM СИГуџётГўтѓетЮЌу┤бт╝ЋСИ║ 0 */
  14:../Application/ecat_callback.c **** #define STORAGE_BLOCK_DEV_INFO  0
  15:../Application/ecat_callback.c **** 
  16:../Application/ecat_callback.c **** /**
  17:../Application/ecat_callback.c ****  * @brief SDO тєЎтЁЦтЏъУ░Ѓт«ъуј░
  18:../Application/ecat_callback.c ****  */
  19:../Application/ecat_callback.c **** UINT8 WriteDevInfo(UINT16 index, UINT8 subindex, UINT32 dataSize, OBJCONST TOBJECT OBJMEM * pObjEnt
  20:../Application/ecat_callback.c **** {
 173              	 .loc 2 20 0
 174              	 .cfi_startproc
 175              	 
 176              	 
 177 0000 80B5     	 push {r7,lr}
 178              	.LCFI11:
 179              	 .cfi_def_cfa_offset 8
 180              	 .cfi_offset 7,-8
 181              	 .cfi_offset 14,-4
 182 0002 86B0     	 sub sp,sp,#24
 183              	.LCFI12:
 184              	 .cfi_def_cfa_offset 32
 185 0004 00AF     	 add r7,sp,#0
 186              	.LCFI13:
 187              	 .cfi_def_cfa_register 7
 188 0006 BA60     	 str r2,[r7,#8]
 189 0008 7B60     	 str r3,[r7,#4]
 190 000a 0346     	 mov r3,r0
 191 000c FB81     	 strh r3,[r7,#14]
 192 000e 0B46     	 mov r3,r1
 193 0010 7B73     	 strb r3,[r7,#13]
  21:../Application/ecat_callback.c **** 	int i = 0;
 194              	 .loc 2 21 0
 195 0012 0023     	 movs r3,#0
 196 0014 7B61     	 str r3,[r7,#20]
  22:../Application/ecat_callback.c ****     /* ућ▒С║јтЇЈУ««ТаѕтєЁжЃеТїЄжњѕ pEntryDesc ТЇЪтЮЈ№╝ѕТїЄтљЉ 0№╝Ѕ№╝їт»╝УЄ┤ OBJ_Write ТЌаТ│ЋТГБтИИт
  23:../Application/ecat_callback.c ****        ТѕЉС╗гтюеУ┐ЎжЄїТЅІтіетцёуљєТЋ░ТЇ«ТІиУ┤Ю№╝їт«їтЁеУи│У┐Є OBJ_Writeсђѓ
  24:../Application/ecat_callback.c ****     */
  25:../Application/ecat_callback.c **** 
  26:../Application/ecat_callback.c **** 	if (bCompleteAccess && (dataSize >= (sizeof(DevInfo0x8000) - 10)))
 197              	 .loc 2 26 0
 198 0016 97F82430 	 ldrb r3,[r7,#36]
 199 001a 002B     	 cmp r3,#0
 200 001c 0DD0     	 beq .L12
 201              	 .loc 2 26 0 is_stmt 0 discriminator 1
 202 001e BB68     	 ldr r3,[r7,#8]
 203 0020 952B     	 cmp r3,#149
 204 0022 0AD9     	 bls .L12
  27:../Application/ecat_callback.c ****     {
  28:../Application/ecat_callback.c ****         /* т«їТЋ┤У«┐жЌ«№╝џжђџтИИСИ╗уФЎС╝џтЈЉжђЂТЋ┤СИфу╗ЊТъёСйЊуџёТЋ░ТЇ«сђѓ
  29:../Application/ecat_callback.c ****            Т│еТёЈ№╝џућ▒С║ју╗ЊТъёСйЊуггСИђСИфТѕљтЉўТў» u16SubIndex0 (2тГЌУіѓ)№╝ї
  30:../Application/ecat_callback.c ****            жюђУдЂуА«С┐ЮСИ╗уФЎтЈЉжђЂуџёТЋ░ТЇ«тЂЈуД╗СИјС╣Ітї╣жЁЇсђѓ*/
  31:../Application/ecat_callback.c ****         if (dataSize <= sizeof(DevInfo0x8000))
 205              	 .loc 2 31 0 is_stmt 1
 206 0024 BB68     	 ldr r3,[r7,#8]
 207 0026 A02B     	 cmp r3,#160
 208 0028 05D8     	 bhi .L13
  32:../Application/ecat_callback.c ****         {
  33:../Application/ecat_callback.c ****             memcpy(&DevInfo0x8000, pData, dataSize);
 209              	 .loc 2 33 0
 210 002a 3848     	 ldr r0,.L27
 211 002c 396A     	 ldr r1,[r7,#32]
 212 002e BA68     	 ldr r2,[r7,#8]
 213 0030 FFF7FEFF 	 bl memcpy
  31:../Application/ecat_callback.c **** de "BSP/bsp_485.h"        /* тїЁтљФ 485 жЕ▒тіеТјЦтЈБ */
 214              	 .loc 2 31 0
 215 0034 5FE0     	 b .L16
 216              	.L13:
  34:../Application/ecat_callback.c ****         }
  35:../Application/ecat_callback.c ****         else
  36:../Application/ecat_callback.c ****         {
  37:../Application/ecat_callback.c ****             return ABORTIDX_VALUE_TOO_GREAT; // ТЋ░ТЇ«У┐ЄжЋ┐
 217              	 .loc 2 37 0
 218 0036 1323     	 movs r3,#19
 219 0038 63E0     	 b .L15
 220              	.L12:
  38:../Application/ecat_callback.c ****         }
  39:../Application/ecat_callback.c ****     }
  40:../Application/ecat_callback.c ****     else
  41:../Application/ecat_callback.c ****     {
  42:../Application/ecat_callback.c ****         /* тЇЋСИфтГљу┤бт╝ЋУ«┐жЌ«№╝џТа╣ТЇ« subindex ТЅІтіет«џСйЇТѕљтЉўтЈўжЄЈ */
  43:../Application/ecat_callback.c ****         switch (subindex)
 221              	 .loc 2 43 0
 222 003a 7B7B     	 ldrb r3,[r7,#13]
 223 003c 0D2B     	 cmp r3,#13
 224 003e 58D8     	 bhi .L17
 225 0040 01A2     	 adr r2,.L19
 226 0042 52F823F0 	 ldr pc,[r2,r3,lsl#2]
 227 0046 00BF     	 .p2align 2
 228              	.L19:
 229 0048 81000000 	 .word .L18+1
 230 004c F3000000 	 .word .L17+1
 231 0050 F3000000 	 .word .L17+1
 232 0054 F3000000 	 .word .L17+1
 233 0058 F3000000 	 .word .L17+1
 234 005c F3000000 	 .word .L17+1
 235 0060 8B000000 	 .word .L20+1
 236 0064 97000000 	 .word .L21+1
 237 0068 A3000000 	 .word .L22+1
 238 006c BB000000 	 .word .L23+1
 239 0070 C7000000 	 .word .L24+1
 240 0074 D3000000 	 .word .L25+1
 241 0078 F3000000 	 .word .L17+1
 242 007c DF000000 	 .word .L26+1
 243              	 .p2align 1
 244              	.L18:
 245              	.LBB3:
  44:../Application/ecat_callback.c ****         {
  45:../Application/ecat_callback.c ****             case 0: // SubIndex0
  46:../Application/ecat_callback.c ****                 DevInfo0x8000.u16SubIndex0 = ((UINT16*)pData)[0];
 246              	 .loc 2 46 0
 247 0080 3B6A     	 ldr r3,[r7,#32]
 248 0082 1A88     	 ldrh r2,[r3]
 249 0084 214B     	 ldr r3,.L27
 250 0086 1A80     	 strh r2,[r3]
  47:../Application/ecat_callback.c ****                 break;
 251              	 .loc 2 47 0
 252 0088 35E0     	 b .L16
 253              	.L20:
  48:../Application/ecat_callback.c **** 
  49:../Application/ecat_callback.c ****             case 6: // BR_canfd_ctrl
  50:../Application/ecat_callback.c ****                 DevInfo0x8000.BR_canfd_ctrl = ((UINT32*)pData)[0];
 254              	 .loc 2 50 0
 255 008a 3B6A     	 ldr r3,[r7,#32]
 256 008c 1B68     	 ldr r3,[r3]
 257 008e 1F4A     	 ldr r2,.L27
 258 0090 C2F88830 	 str r3,[r2,#136]
  51:../Application/ecat_callback.c ****                 break;
 259              	 .loc 2 51 0
 260 0094 2FE0     	 b .L16
 261              	.L21:
  52:../Application/ecat_callback.c **** 
  53:../Application/ecat_callback.c ****             case 7: // BR_canfd_data
  54:../Application/ecat_callback.c ****                 DevInfo0x8000.BR_canfd_data = ((UINT32*)pData)[0];
 262              	 .loc 2 54 0
 263 0096 3B6A     	 ldr r3,[r7,#32]
 264 0098 1B68     	 ldr r3,[r3]
 265 009a 1C4A     	 ldr r2,.L27
 266 009c C2F88C30 	 str r3,[r2,#140]
  55:../Application/ecat_callback.c ****                 break;
 267              	 .loc 2 55 0
 268 00a0 29E0     	 b .L16
 269              	.L22:
  56:../Application/ecat_callback.c **** 
  57:../Application/ecat_callback.c ****             case 8: // BR_485
  58:../Application/ecat_callback.c ****                 DevInfo0x8000.BR_485 = ((UINT32*)pData)[0];
 270              	 .loc 2 58 0
 271 00a2 3B6A     	 ldr r3,[r7,#32]
 272 00a4 1B68     	 ldr r3,[r3]
 273 00a6 194A     	 ldr r2,.L27
 274 00a8 C2F89030 	 str r3,[r2,#144]
  59:../Application/ecat_callback.c ****                 set_rs485_baud(DevInfo0x8000.BR_485);
 275              	 .loc 2 59 0
 276 00ac 174B     	 ldr r3,.L27
 277 00ae D3F89030 	 ldr r3,[r3,#144]
 278 00b2 1846     	 mov r0,r3
 279 00b4 FFF7FEFF 	 bl set_rs485_baud
  60:../Application/ecat_callback.c ****                 break;
 280              	 .loc 2 60 0
 281 00b8 1DE0     	 b .L16
 282              	.L23:
  61:../Application/ecat_callback.c **** 
  62:../Application/ecat_callback.c ****             case 9: // Use120
  63:../Application/ecat_callback.c ****                 DevInfo0x8000.Use120 = ((UINT8*)pData)[0];
 283              	 .loc 2 63 0
 284 00ba 3B6A     	 ldr r3,[r7,#32]
 285 00bc 1A78     	 ldrb r2,[r3]
 286 00be 134B     	 ldr r3,.L27
 287 00c0 83F89420 	 strb r2,[r3,#148]
  64:../Application/ecat_callback.c ****                 break;
 288              	 .loc 2 64 0
 289 00c4 17E0     	 b .L16
 290              	.L24:
  65:../Application/ecat_callback.c **** 
  66:../Application/ecat_callback.c ****             case 10: // Use485 (СйатйЊтЅЇС┐«Тћ╣уџёжА╣)
  67:../Application/ecat_callback.c ****                 DevInfo0x8000.Use485 = ((UINT8*)pData)[0];
 291              	 .loc 2 67 0
 292 00c6 3B6A     	 ldr r3,[r7,#32]
 293 00c8 1A78     	 ldrb r2,[r3]
 294 00ca 104B     	 ldr r3,.L27
 295 00cc 83F89520 	 strb r2,[r3,#149]
  68:../Application/ecat_callback.c ****                 break;
 296              	 .loc 2 68 0
 297 00d0 11E0     	 b .L16
 298              	.L25:
  69:../Application/ecat_callback.c **** 
  70:../Application/ecat_callback.c ****             case 11: // UseModbus
  71:../Application/ecat_callback.c ****                 DevInfo0x8000.UseModbus = ((UINT8*)pData)[0];
 299              	 .loc 2 71 0
 300 00d2 3B6A     	 ldr r3,[r7,#32]
 301 00d4 1A78     	 ldrb r2,[r3]
 302 00d6 0D4B     	 ldr r3,.L27
 303 00d8 83F89620 	 strb r2,[r3,#150]
  72:../Application/ecat_callback.c ****                 break;
 304              	 .loc 2 72 0
 305 00dc 0BE0     	 b .L16
 306              	.L26:
  73:../Application/ecat_callback.c **** 
  74:../Application/ecat_callback.c ****             case 13: // DevID (VISIBLE_STRING)
  75:../Application/ecat_callback.c ****                 // тГЌугдСИ▓жюђУдЂСй┐уће memcpy№╝їжЋ┐т║дСИіжЎљСИ║ 6 тГЌУіѓ
  76:../Application/ecat_callback.c ****                 memcpy(DevInfo0x8000.DevID, pData, (dataSize > 6) ? 6 : dataSize);
 307              	 .loc 2 76 0
 308 00de BB68     	 ldr r3,[r7,#8]
 309 00e0 062B     	 cmp r3,#6
 310 00e2 28BF     	 it cs
 311 00e4 0623     	 movcs r3,#6
 312 00e6 0A48     	 ldr r0,.L27+4
 313 00e8 396A     	 ldr r1,[r7,#32]
 314 00ea 1A46     	 mov r2,r3
 315 00ec FFF7FEFF 	 bl memcpy
  77:../Application/ecat_callback.c ****                 break;
 316              	 .loc 2 77 0
 317 00f0 01E0     	 b .L16
 318              	.L17:
  78:../Application/ecat_callback.c **** 
  79:../Application/ecat_callback.c ****             default:
  80:../Application/ecat_callback.c ****                 /* тЁХС╗ќтГљу┤бт╝Ћ№╝ѕтдѓтЈфУ»╗жА╣№╝ЅТѕќУХЁтЄ║УїЃтЏ┤жА╣У┐ћтЏъжћЎУ»» */
  81:../Application/ecat_callback.c ****                 return ABORTIDX_SUBINDEX_NOT_EXISTING;
 319              	 .loc 2 81 0
 320 00f2 1123     	 movs r3,#17
 321 00f4 05E0     	 b .L15
 322              	.L16:
 323              	.LBE3:
  82:../Application/ecat_callback.c ****         }
  83:../Application/ecat_callback.c ****     }
  84:../Application/ecat_callback.c **** 
  85:../Application/ecat_callback.c ****     /* ТЋ░ТЇ«ти▓ТѕљтіЪтєЎтЁЦтєЁтГў№╝їТЅДУАїтљїТГЦтњїТїЂС╣Ётїќжђ╗УЙЉ */
  86:../Application/ecat_callback.c ****     SyncConfig_FromSSC(&s_DevConfig);
 324              	 .loc 2 86 0
 325 00f6 0748     	 ldr r0,.L27+8
 326 00f8 FFF7FEFF 	 bl SyncConfig_FromSSC
  87:../Application/ecat_callback.c **** 
  88:../Application/ecat_callback.c ****     /* Т│еТёЈ№╝џSaveDeviceConfig ТХЅтЈі Flash ТЊЇСйю№╝ї
  89:../Application/ecat_callback.c ****        тдѓТъю result У┐ћтЏъу╗ЎСИ╗уФЎтцфТЁб№╝їт╗║У««У┐ЎжЄїтЈфуй«ТаЄт┐ЌСйЇ№╝їтюеСИ╗тЙфуј»С┐ЮтГў */
  90:../Application/ecat_callback.c ****     SaveDeviceConfig();
 327              	 .loc 2 90 0
 328 00fc FFF7FEFF 	 bl SaveDeviceConfig
  91:../Application/ecat_callback.c **** 
  92:../Application/ecat_callback.c ****     return 0; // т╝║УАїУ┐ћтЏъТѕљтіЪ№╝їУДБтє│ТіЊСИЇтѕ░тїЁуџёжЌ«жбў
 329              	 .loc 2 92 0
 330 0100 0023     	 movs r3,#0
 331              	.L15:
  93:../Application/ecat_callback.c **** }
 332              	 .loc 2 93 0
 333 0102 1846     	 mov r0,r3
 334 0104 1837     	 adds r7,r7,#24
 335              	.LCFI14:
 336              	 .cfi_def_cfa_offset 8
 337 0106 BD46     	 mov sp,r7
 338              	.LCFI15:
 339              	 .cfi_def_cfa_register 13
 340              	 
 341 0108 80BD     	 pop {r7,pc}
 342              	.L28:
 343 010a 00BF     	 .align 2
 344              	.L27:
 345 010c 00000000 	 .word DevInfo0x8000
 346 0110 98000000 	 .word DevInfo0x8000+152
 347 0114 00000000 	 .word s_DevConfig
 348              	 .cfi_endproc
 349              	.LFE479:
 351              	 .section .text.LoadDeviceConfig,"ax",%progbits
 352              	 .align 2
 353              	 .global LoadDeviceConfig
 354              	 .thumb
 355              	 .thumb_func
 357              	LoadDeviceConfig:
 358              	.LFB480:
  94:../Application/ecat_callback.c **** 
  95:../Application/ecat_callback.c **** /**
  96:../Application/ecat_callback.c ****  * @brief С╗ј EEPROM тіаУййжЁЇуй«т╣ХтюеСИіућхТЌХтѕЮтДІтїќ
  97:../Application/ecat_callback.c ****  */
  98:../Application/ecat_callback.c **** void LoadDeviceConfig(void)
  99:../Application/ecat_callback.c **** {
 359              	 .loc 2 99 0
 360              	 .cfi_startproc
 361              	 
 362              	 
 363 0000 80B5     	 push {r7,lr}
 364              	.LCFI16:
 365              	 .cfi_def_cfa_offset 8
 366              	 .cfi_offset 7,-8
 367              	 .cfi_offset 14,-4
 368 0002 00AF     	 add r7,sp,#0
 369              	.LCFI17:
 370              	 .cfi_def_cfa_register 7
 100:../Application/ecat_callback.c ****     if (!s_DevConfigValid)
 371              	 .loc 2 100 0
 372 0004 084B     	 ldr r3,.L31
 373 0006 1B78     	 ldrb r3,[r3]
 374 0008 002B     	 cmp r3,#0
 375 000a 0CD1     	 bne .L29
 101:../Application/ecat_callback.c ****     {
 102:../Application/ecat_callback.c ****         E_EEPROM_XMC4_ReadArray(DEVICE_CONFIG_EEPROM_OFFSET,
 376              	 .loc 2 102 0
 377 000c 4FF48850 	 mov r0,#4352
 378 0010 0649     	 ldr r1,.L31+4
 379 0012 A122     	 movs r2,#161
 380 0014 FFF7FEFF 	 bl E_EEPROM_XMC4_ReadArray
 103:../Application/ecat_callback.c ****                                 (uint8_t*)&s_DevConfig, sizeof(DeviceConfig_t));
 104:../Application/ecat_callback.c ****         s_DevConfigValid = DeviceConfig_IsValid(&s_DevConfig);
 381              	 .loc 2 104 0
 382 0018 0448     	 ldr r0,.L31+4
 383 001a FFF7FEFF 	 bl DeviceConfig_IsValid
 384 001e 0346     	 mov r3,r0
 385 0020 1A46     	 mov r2,r3
 386 0022 014B     	 ldr r3,.L31
 387 0024 1A70     	 strb r2,[r3]
 388              	.L29:
 105:../Application/ecat_callback.c ****     }
 106:../Application/ecat_callback.c **** }
 389              	 .loc 2 106 0
 390 0026 80BD     	 pop {r7,pc}
 391              	.L32:
 392              	 .align 2
 393              	.L31:
 394 0028 00000000 	 .word s_DevConfigValid
 395 002c 00000000 	 .word s_DevConfig
 396              	 .cfi_endproc
 397              	.LFE480:
 399              	 .section .text.SaveDeviceConfig,"ax",%progbits
 400              	 .align 2
 401              	 .thumb
 402              	 .thumb_func
 404              	SaveDeviceConfig:
 405              	.LFB481:
 107:../Application/ecat_callback.c **** 
 108:../Application/ecat_callback.c **** /**
 109:../Application/ecat_callback.c ****  * @brief ТЅДУАїТїЂС╣ЁтїќС┐ЮтГў
 110:../Application/ecat_callback.c ****  */
 111:../Application/ecat_callback.c **** static void SaveDeviceConfig(void)
 112:../Application/ecat_callback.c **** {
 406              	 .loc 2 112 0
 407              	 .cfi_startproc
 408              	 
 409              	 
 410 0000 80B5     	 push {r7,lr}
 411              	.LCFI18:
 412              	 .cfi_def_cfa_offset 8
 413              	 .cfi_offset 7,-8
 414              	 .cfi_offset 14,-4
 415 0002 00AF     	 add r7,sp,#0
 416              	.LCFI19:
 417              	 .cfi_def_cfa_register 7
 113:../Application/ecat_callback.c ****     E_EEPROM_XMC4_WriteArray(DEVICE_CONFIG_EEPROM_OFFSET,
 418              	 .loc 2 113 0
 419 0004 4FF48850 	 mov r0,#4352
 420 0008 0249     	 ldr r1,.L34
 421 000a A122     	 movs r2,#161
 422 000c FFF7FEFF 	 bl E_EEPROM_XMC4_WriteArray
 114:../Application/ecat_callback.c ****                             (uint8_t*)&s_DevConfig, sizeof(DeviceConfig_t));
 115:../Application/ecat_callback.c **** }
 423              	 .loc 2 115 0
 424 0010 80BD     	 pop {r7,pc}
 425              	.L35:
 426 0012 00BF     	 .align 2
 427              	.L34:
 428 0014 00000000 	 .word s_DevConfig
 429              	 .cfi_endproc
 430              	.LFE481:
 432              	 .text
 433              	.Letext0:
 434              	 .file 3 "d:\\infineon\\tools\\dave ide\\4.5.0.202105191637\\eclipse\\arm-gcc-49\\arm-none-eabi\\include\\machine\\_default_types.h"
 435              	 .file 4 "d:\\infineon\\tools\\dave ide\\4.5.0.202105191637\\eclipse\\arm-gcc-49\\arm-none-eabi\\include\\stdint.h"
 436              	 .file 5 "D:/Infineon/Tools/DAVE IDE/4.5.0.202105191637/eclipse/workspace/XMC4300-app/SSC/Src/sdoserv.h"
 437              	 .file 6 "D:/Infineon/Tools/DAVE IDE/4.5.0.202105191637/eclipse/workspace/XMC4300-app/SSC/Src/objdef.h"
 438              	 .file 7 "D:/Infineon/Tools/DAVE IDE/4.5.0.202105191637/eclipse/workspace/XMC4300-app/SSC/Src/ryhandObjects.h"
 439              	 .file 8 "D:/Infineon/Tools/DAVE IDE/4.5.0.202105191637/eclipse/workspace/XMC4300-app/Libraries/XMCLib/inc/xmc_usic.h"
 440              	 .file 9 "D:/Infineon/Tools/DAVE IDE/4.5.0.202105191637/eclipse/workspace/XMC4300-app/Libraries/CMSIS/Include/cmsis_gcc.h"
 441              	 .file 10 "D:/Infineon/Tools/DAVE IDE/4.5.0.202105191637/eclipse/workspace/XMC4300-app/Libraries/CMSIS/Include/core_cm4.h"
 442              	 .file 11 "D:/Infineon/Tools/DAVE IDE/4.5.0.202105191637/eclipse/workspace/XMC4300-app/Libraries/CMSIS/Infineon/XMC4300_series/Include/system_XMC4300.h"