   1              	 .syntax unified
   2              	 .cpu cortex-m4
   3              	 .eabi_attribute 27,3
   4              	 .fpu fpv4-sp-d16
   5              	 .eabi_attribute 20,1
   6              	 .eabi_attribute 21,1
   7              	 .eabi_attribute 23,3
   8              	 .eabi_attribute 24,1
   9              	 .eabi_attribute 25,1
  10              	 .eabi_attribute 26,1
  11              	 .eabi_attribute 30,6
  12              	 .eabi_attribute 34,1
  13              	 .eabi_attribute 18,4
  14              	 .thumb
  15              	 .file "flashprog.c"
  16              	 .text
  17              	.Ltext0:
  18              	 .cfi_sections .debug_frame
  19              	 .section .text.XMC_FCE_GetCRCResult,"ax",%progbits
  20              	 .align 2
  21              	 .thumb
  22              	 .thumb_func
  24              	XMC_FCE_GetCRCResult:
  25              	.LFB162:
  26              	 .file 1 "D:/Infineon/Tools/DAVE IDE/4.5.0.202105191637/eclipse/workspace/XMC4300-app/Libraries/XMCLib/inc/xmc_fce.h"
   1:D:/Infineon/Tools/DAVE IDE/4.5.0.202105191637/eclipse/workspace/XMC4300-app/Libraries/XMCLib/inc\xmc_fce.h **** /**
   2:D:/Infineon/Tools/DAVE IDE/4.5.0.202105191637/eclipse/workspace/XMC4300-app/Libraries/XMCLib/inc\xmc_fce.h ****  * @file xmc_fce.h
   3:D:/Infineon/Tools/DAVE IDE/4.5.0.202105191637/eclipse/workspace/XMC4300-app/Libraries/XMCLib/inc\xmc_fce.h ****  * @date 2019-12-02
   4:D:/Infineon/Tools/DAVE IDE/4.5.0.202105191637/eclipse/workspace/XMC4300-app/Libraries/XMCLib/inc\xmc_fce.h ****  *
   5:D:/Infineon/Tools/DAVE IDE/4.5.0.202105191637/eclipse/workspace/XMC4300-app/Libraries/XMCLib/inc\xmc_fce.h ****  * @cond
   6:D:/Infineon/Tools/DAVE IDE/4.5.0.202105191637/eclipse/workspace/XMC4300-app/Libraries/XMCLib/inc\xmc_fce.h ****  *****************************************************************************
   7:D:/Infineon/Tools/DAVE IDE/4.5.0.202105191637/eclipse/workspace/XMC4300-app/Libraries/XMCLib/inc\xmc_fce.h ****  * XMClib v2.2.0 - XMC Peripheral Driver Library
   8:D:/Infineon/Tools/DAVE IDE/4.5.0.202105191637/eclipse/workspace/XMC4300-app/Libraries/XMCLib/inc\xmc_fce.h ****  *
   9:D:/Infineon/Tools/DAVE IDE/4.5.0.202105191637/eclipse/workspace/XMC4300-app/Libraries/XMCLib/inc\xmc_fce.h ****  * Copyright (c) 2015-2020, Infineon Technologies AG
  10:D:/Infineon/Tools/DAVE IDE/4.5.0.202105191637/eclipse/workspace/XMC4300-app/Libraries/XMCLib/inc\xmc_fce.h ****  * All rights reserved.
  11:D:/Infineon/Tools/DAVE IDE/4.5.0.202105191637/eclipse/workspace/XMC4300-app/Libraries/XMCLib/inc\xmc_fce.h ****  *
  12:D:/Infineon/Tools/DAVE IDE/4.5.0.202105191637/eclipse/workspace/XMC4300-app/Libraries/XMCLib/inc\xmc_fce.h ****  * Boost Software License - Version 1.0 - August 17th, 2003
  13:D:/Infineon/Tools/DAVE IDE/4.5.0.202105191637/eclipse/workspace/XMC4300-app/Libraries/XMCLib/inc\xmc_fce.h ****  *
  14:D:/Infineon/Tools/DAVE IDE/4.5.0.202105191637/eclipse/workspace/XMC4300-app/Libraries/XMCLib/inc\xmc_fce.h ****  * Permission is hereby granted, free of charge, to any person or organization
  15:D:/Infineon/Tools/DAVE IDE/4.5.0.202105191637/eclipse/workspace/XMC4300-app/Libraries/XMCLib/inc\xmc_fce.h ****  * obtaining a copy of the software and accompanying documentation covered by
  16:D:/Infineon/Tools/DAVE IDE/4.5.0.202105191637/eclipse/workspace/XMC4300-app/Libraries/XMCLib/inc\xmc_fce.h ****  * this license (the "Software") to use, reproduce, display, distribute,
  17:D:/Infineon/Tools/DAVE IDE/4.5.0.202105191637/eclipse/workspace/XMC4300-app/Libraries/XMCLib/inc\xmc_fce.h ****  * execute, and transmit the Software, and to prepare derivative works of the
  18:D:/Infineon/Tools/DAVE IDE/4.5.0.202105191637/eclipse/workspace/XMC4300-app/Libraries/XMCLib/inc\xmc_fce.h ****  * Software, and to permit third-parties to whom the Software is furnished to
  19:D:/Infineon/Tools/DAVE IDE/4.5.0.202105191637/eclipse/workspace/XMC4300-app/Libraries/XMCLib/inc\xmc_fce.h ****  * do so, all subject to the following:
  20:D:/Infineon/Tools/DAVE IDE/4.5.0.202105191637/eclipse/workspace/XMC4300-app/Libraries/XMCLib/inc\xmc_fce.h ****  *
  21:D:/Infineon/Tools/DAVE IDE/4.5.0.202105191637/eclipse/workspace/XMC4300-app/Libraries/XMCLib/inc\xmc_fce.h ****  * The copyright notices in the Software and this entire statement, including
  22:D:/Infineon/Tools/DAVE IDE/4.5.0.202105191637/eclipse/workspace/XMC4300-app/Libraries/XMCLib/inc\xmc_fce.h ****  * the above license grant, this restriction and the following disclaimer,
  23:D:/Infineon/Tools/DAVE IDE/4.5.0.202105191637/eclipse/workspace/XMC4300-app/Libraries/XMCLib/inc\xmc_fce.h ****  * must be included in all copies of the Software, in whole or in part, and
  24:D:/Infineon/Tools/DAVE IDE/4.5.0.202105191637/eclipse/workspace/XMC4300-app/Libraries/XMCLib/inc\xmc_fce.h ****  * all derivative works of the Software, unless such copies or derivative
  25:D:/Infineon/Tools/DAVE IDE/4.5.0.202105191637/eclipse/workspace/XMC4300-app/Libraries/XMCLib/inc\xmc_fce.h ****  * works are solely in the form of machine-executable object code generated by
  26:D:/Infineon/Tools/DAVE IDE/4.5.0.202105191637/eclipse/workspace/XMC4300-app/Libraries/XMCLib/inc\xmc_fce.h ****  * a source language processor.
  27:D:/Infineon/Tools/DAVE IDE/4.5.0.202105191637/eclipse/workspace/XMC4300-app/Libraries/XMCLib/inc\xmc_fce.h ****  *
  28:D:/Infineon/Tools/DAVE IDE/4.5.0.202105191637/eclipse/workspace/XMC4300-app/Libraries/XMCLib/inc\xmc_fce.h ****  * THE SOFTWARE IS PROVIDED "AS IS", WITHOUT WARRANTY OF ANY KIND, EXPRESS OR
  29:D:/Infineon/Tools/DAVE IDE/4.5.0.202105191637/eclipse/workspace/XMC4300-app/Libraries/XMCLib/inc\xmc_fce.h ****  * IMPLIED, INCLUDING BUT NOT LIMITED TO THE WARRANTIES OF MERCHANTABILITY,
  30:D:/Infineon/Tools/DAVE IDE/4.5.0.202105191637/eclipse/workspace/XMC4300-app/Libraries/XMCLib/inc\xmc_fce.h ****  * FITNESS FOR A PARTICULAR PURPOSE, TITLE AND NON-INFRINGEMENT. IN NO EVENT
  31:D:/Infineon/Tools/DAVE IDE/4.5.0.202105191637/eclipse/workspace/XMC4300-app/Libraries/XMCLib/inc\xmc_fce.h ****  * SHALL THE COPYRIGHT HOLDERS OR ANYONE DISTRIBUTING THE SOFTWARE BE LIABLE
  32:D:/Infineon/Tools/DAVE IDE/4.5.0.202105191637/eclipse/workspace/XMC4300-app/Libraries/XMCLib/inc\xmc_fce.h ****  * FOR ANY DAMAGES OR OTHER LIABILITY, WHETHER IN CONTRACT, TORT OR OTHERWISE,
  33:D:/Infineon/Tools/DAVE IDE/4.5.0.202105191637/eclipse/workspace/XMC4300-app/Libraries/XMCLib/inc\xmc_fce.h ****  * ARISING FROM, OUT OF OR IN CONNECTION WITH THE SOFTWARE OR THE USE OR OTHER
  34:D:/Infineon/Tools/DAVE IDE/4.5.0.202105191637/eclipse/workspace/XMC4300-app/Libraries/XMCLib/inc\xmc_fce.h ****  * DEALINGS IN THE SOFTWARE.
  35:D:/Infineon/Tools/DAVE IDE/4.5.0.202105191637/eclipse/workspace/XMC4300-app/Libraries/XMCLib/inc\xmc_fce.h ****  *
  36:D:/Infineon/Tools/DAVE IDE/4.5.0.202105191637/eclipse/workspace/XMC4300-app/Libraries/XMCLib/inc\xmc_fce.h ****  * To improve the quality of the software, users are encouraged to share
  37:D:/Infineon/Tools/DAVE IDE/4.5.0.202105191637/eclipse/workspace/XMC4300-app/Libraries/XMCLib/inc\xmc_fce.h ****  * modifications, enhancements or bug fixes with Infineon Technologies AG
  38:D:/Infineon/Tools/DAVE IDE/4.5.0.202105191637/eclipse/workspace/XMC4300-app/Libraries/XMCLib/inc\xmc_fce.h ****  * at XMCSupport@infineon.com.
  39:D:/Infineon/Tools/DAVE IDE/4.5.0.202105191637/eclipse/workspace/XMC4300-app/Libraries/XMCLib/inc\xmc_fce.h ****  *****************************************************************************
  40:D:/Infineon/Tools/DAVE IDE/4.5.0.202105191637/eclipse/workspace/XMC4300-app/Libraries/XMCLib/inc\xmc_fce.h ****  *
  41:D:/Infineon/Tools/DAVE IDE/4.5.0.202105191637/eclipse/workspace/XMC4300-app/Libraries/XMCLib/inc\xmc_fce.h ****  * Change History
  42:D:/Infineon/Tools/DAVE IDE/4.5.0.202105191637/eclipse/workspace/XMC4300-app/Libraries/XMCLib/inc\xmc_fce.h ****  * --------------
  43:D:/Infineon/Tools/DAVE IDE/4.5.0.202105191637/eclipse/workspace/XMC4300-app/Libraries/XMCLib/inc\xmc_fce.h ****  *
  44:D:/Infineon/Tools/DAVE IDE/4.5.0.202105191637/eclipse/workspace/XMC4300-app/Libraries/XMCLib/inc\xmc_fce.h ****  * 2015-02-20:
  45:D:/Infineon/Tools/DAVE IDE/4.5.0.202105191637/eclipse/workspace/XMC4300-app/Libraries/XMCLib/inc\xmc_fce.h ****  *     - Initial
  46:D:/Infineon/Tools/DAVE IDE/4.5.0.202105191637/eclipse/workspace/XMC4300-app/Libraries/XMCLib/inc\xmc_fce.h ****  *
  47:D:/Infineon/Tools/DAVE IDE/4.5.0.202105191637/eclipse/workspace/XMC4300-app/Libraries/XMCLib/inc\xmc_fce.h ****  * 2015-05-20:
  48:D:/Infineon/Tools/DAVE IDE/4.5.0.202105191637/eclipse/workspace/XMC4300-app/Libraries/XMCLib/inc\xmc_fce.h ****  *     - Description updated <br>
  49:D:/Infineon/Tools/DAVE IDE/4.5.0.202105191637/eclipse/workspace/XMC4300-app/Libraries/XMCLib/inc\xmc_fce.h ****  *
  50:D:/Infineon/Tools/DAVE IDE/4.5.0.202105191637/eclipse/workspace/XMC4300-app/Libraries/XMCLib/inc\xmc_fce.h ****  * 2015-06-20:
  51:D:/Infineon/Tools/DAVE IDE/4.5.0.202105191637/eclipse/workspace/XMC4300-app/Libraries/XMCLib/inc\xmc_fce.h ****  *     - Removed version macros and declaration of GetDriverVersion API
  52:D:/Infineon/Tools/DAVE IDE/4.5.0.202105191637/eclipse/workspace/XMC4300-app/Libraries/XMCLib/inc\xmc_fce.h ****  *
  53:D:/Infineon/Tools/DAVE IDE/4.5.0.202105191637/eclipse/workspace/XMC4300-app/Libraries/XMCLib/inc\xmc_fce.h ****  * 2019-03-30:
  54:D:/Infineon/Tools/DAVE IDE/4.5.0.202105191637/eclipse/workspace/XMC4300-app/Libraries/XMCLib/inc\xmc_fce.h ****  *     - Added XMC_FCE_CalculateCRC16Ex() and XMC_FCE_CalculateCRC32Ex()
  55:D:/Infineon/Tools/DAVE IDE/4.5.0.202105191637/eclipse/workspace/XMC4300-app/Libraries/XMCLib/inc\xmc_fce.h ****  *
  56:D:/Infineon/Tools/DAVE IDE/4.5.0.202105191637/eclipse/workspace/XMC4300-app/Libraries/XMCLib/inc\xmc_fce.h ****  * 2019-12-02:
  57:D:/Infineon/Tools/DAVE IDE/4.5.0.202105191637/eclipse/workspace/XMC4300-app/Libraries/XMCLib/inc\xmc_fce.h ****  *     - Fix including files following the convention: angle brackets are used for standard include
  58:D:/Infineon/Tools/DAVE IDE/4.5.0.202105191637/eclipse/workspace/XMC4300-app/Libraries/XMCLib/inc\xmc_fce.h ****  *
  59:D:/Infineon/Tools/DAVE IDE/4.5.0.202105191637/eclipse/workspace/XMC4300-app/Libraries/XMCLib/inc\xmc_fce.h ****  * @endcond
  60:D:/Infineon/Tools/DAVE IDE/4.5.0.202105191637/eclipse/workspace/XMC4300-app/Libraries/XMCLib/inc\xmc_fce.h ****  *
  61:D:/Infineon/Tools/DAVE IDE/4.5.0.202105191637/eclipse/workspace/XMC4300-app/Libraries/XMCLib/inc\xmc_fce.h ****  */
  62:D:/Infineon/Tools/DAVE IDE/4.5.0.202105191637/eclipse/workspace/XMC4300-app/Libraries/XMCLib/inc\xmc_fce.h **** 
  63:D:/Infineon/Tools/DAVE IDE/4.5.0.202105191637/eclipse/workspace/XMC4300-app/Libraries/XMCLib/inc\xmc_fce.h **** #ifndef XMC_FCE_H
  64:D:/Infineon/Tools/DAVE IDE/4.5.0.202105191637/eclipse/workspace/XMC4300-app/Libraries/XMCLib/inc\xmc_fce.h **** #define XMC_FCE_H
  65:D:/Infineon/Tools/DAVE IDE/4.5.0.202105191637/eclipse/workspace/XMC4300-app/Libraries/XMCLib/inc\xmc_fce.h **** 
  66:D:/Infineon/Tools/DAVE IDE/4.5.0.202105191637/eclipse/workspace/XMC4300-app/Libraries/XMCLib/inc\xmc_fce.h **** /**************************************************************************************************
  67:D:/Infineon/Tools/DAVE IDE/4.5.0.202105191637/eclipse/workspace/XMC4300-app/Libraries/XMCLib/inc\xmc_fce.h ****  * HEADER FILES
  68:D:/Infineon/Tools/DAVE IDE/4.5.0.202105191637/eclipse/workspace/XMC4300-app/Libraries/XMCLib/inc\xmc_fce.h ****  **************************************************************************************************
  69:D:/Infineon/Tools/DAVE IDE/4.5.0.202105191637/eclipse/workspace/XMC4300-app/Libraries/XMCLib/inc\xmc_fce.h **** 
  70:D:/Infineon/Tools/DAVE IDE/4.5.0.202105191637/eclipse/workspace/XMC4300-app/Libraries/XMCLib/inc\xmc_fce.h **** #include "xmc_common.h"
  71:D:/Infineon/Tools/DAVE IDE/4.5.0.202105191637/eclipse/workspace/XMC4300-app/Libraries/XMCLib/inc\xmc_fce.h **** 
  72:D:/Infineon/Tools/DAVE IDE/4.5.0.202105191637/eclipse/workspace/XMC4300-app/Libraries/XMCLib/inc\xmc_fce.h **** #if defined (FCE)
  73:D:/Infineon/Tools/DAVE IDE/4.5.0.202105191637/eclipse/workspace/XMC4300-app/Libraries/XMCLib/inc\xmc_fce.h **** 
  74:D:/Infineon/Tools/DAVE IDE/4.5.0.202105191637/eclipse/workspace/XMC4300-app/Libraries/XMCLib/inc\xmc_fce.h **** /**
  75:D:/Infineon/Tools/DAVE IDE/4.5.0.202105191637/eclipse/workspace/XMC4300-app/Libraries/XMCLib/inc\xmc_fce.h ****  * @addtogroup XMClib
  76:D:/Infineon/Tools/DAVE IDE/4.5.0.202105191637/eclipse/workspace/XMC4300-app/Libraries/XMCLib/inc\xmc_fce.h ****  * @{
  77:D:/Infineon/Tools/DAVE IDE/4.5.0.202105191637/eclipse/workspace/XMC4300-app/Libraries/XMCLib/inc\xmc_fce.h ****  */
  78:D:/Infineon/Tools/DAVE IDE/4.5.0.202105191637/eclipse/workspace/XMC4300-app/Libraries/XMCLib/inc\xmc_fce.h **** 
  79:D:/Infineon/Tools/DAVE IDE/4.5.0.202105191637/eclipse/workspace/XMC4300-app/Libraries/XMCLib/inc\xmc_fce.h **** /**
  80:D:/Infineon/Tools/DAVE IDE/4.5.0.202105191637/eclipse/workspace/XMC4300-app/Libraries/XMCLib/inc\xmc_fce.h ****  * @addtogroup FCE
  81:D:/Infineon/Tools/DAVE IDE/4.5.0.202105191637/eclipse/workspace/XMC4300-app/Libraries/XMCLib/inc\xmc_fce.h ****  * @brief Flexible CRC Engine(FCE) driver for the XMC microcontroller family.
  82:D:/Infineon/Tools/DAVE IDE/4.5.0.202105191637/eclipse/workspace/XMC4300-app/Libraries/XMCLib/inc\xmc_fce.h ****  *
  83:D:/Infineon/Tools/DAVE IDE/4.5.0.202105191637/eclipse/workspace/XMC4300-app/Libraries/XMCLib/inc\xmc_fce.h ****  * The FCE provides a parallel implementation of Cyclic Redundancy Code (CRC)
  84:D:/Infineon/Tools/DAVE IDE/4.5.0.202105191637/eclipse/workspace/XMC4300-app/Libraries/XMCLib/inc\xmc_fce.h ****  * algorithms. The current FCE version for the XMC4000 microcontroller family implements the
  85:D:/Infineon/Tools/DAVE IDE/4.5.0.202105191637/eclipse/workspace/XMC4300-app/Libraries/XMCLib/inc\xmc_fce.h ****  * IEEE 802.3 ethernet CRC32, the CCITT CRC16 and the SAE J1850 CRC8 polynomials.
  86:D:/Infineon/Tools/DAVE IDE/4.5.0.202105191637/eclipse/workspace/XMC4300-app/Libraries/XMCLib/inc\xmc_fce.h ****  * The primary target of FCE is to be used as an hardware acceleration engine for software
  87:D:/Infineon/Tools/DAVE IDE/4.5.0.202105191637/eclipse/workspace/XMC4300-app/Libraries/XMCLib/inc\xmc_fce.h ****  * applications or operating systems services using CRC signatures.
  88:D:/Infineon/Tools/DAVE IDE/4.5.0.202105191637/eclipse/workspace/XMC4300-app/Libraries/XMCLib/inc\xmc_fce.h ****  *
  89:D:/Infineon/Tools/DAVE IDE/4.5.0.202105191637/eclipse/workspace/XMC4300-app/Libraries/XMCLib/inc\xmc_fce.h ****  * @image html fce_overview.png
  90:D:/Infineon/Tools/DAVE IDE/4.5.0.202105191637/eclipse/workspace/XMC4300-app/Libraries/XMCLib/inc\xmc_fce.h ****  * @image latex ../images/fce_overview.png
  91:D:/Infineon/Tools/DAVE IDE/4.5.0.202105191637/eclipse/workspace/XMC4300-app/Libraries/XMCLib/inc\xmc_fce.h ****  * FCE Features: <br>
  92:D:/Infineon/Tools/DAVE IDE/4.5.0.202105191637/eclipse/workspace/XMC4300-app/Libraries/XMCLib/inc\xmc_fce.h ****  * @image html fce_polynomials.png
  93:D:/Infineon/Tools/DAVE IDE/4.5.0.202105191637/eclipse/workspace/XMC4300-app/Libraries/XMCLib/inc\xmc_fce.h ****  * @image latex ../images/fce_polynomials.png
  94:D:/Infineon/Tools/DAVE IDE/4.5.0.202105191637/eclipse/workspace/XMC4300-app/Libraries/XMCLib/inc\xmc_fce.h ****  *    * CRC kernel 0 and 1: IEEE 802.3 CRC32 ethernet polynomial: 0x04C11DB71 <br>
  95:D:/Infineon/Tools/DAVE IDE/4.5.0.202105191637/eclipse/workspace/XMC4300-app/Libraries/XMCLib/inc\xmc_fce.h ****  *    * CRC kernel 2: CCITT CRC16 polynomial: 0x1021 <br>
  96:D:/Infineon/Tools/DAVE IDE/4.5.0.202105191637/eclipse/workspace/XMC4300-app/Libraries/XMCLib/inc\xmc_fce.h ****  *    * CRC kernel 3: SAE J1850 CRC8 polynomial: 0x1D <br>
  97:D:/Infineon/Tools/DAVE IDE/4.5.0.202105191637/eclipse/workspace/XMC4300-app/Libraries/XMCLib/inc\xmc_fce.h ****  *    * Configuration Registers enable to control the CRC operation and perform automatic checksum 
  98:D:/Infineon/Tools/DAVE IDE/4.5.0.202105191637/eclipse/workspace/XMC4300-app/Libraries/XMCLib/inc\xmc_fce.h ****  *      the end of a message. <br>
  99:D:/Infineon/Tools/DAVE IDE/4.5.0.202105191637/eclipse/workspace/XMC4300-app/Libraries/XMCLib/inc\xmc_fce.h ****  *    * Extended register interface to control reliability of FCE execution in safety applications.
 100:D:/Infineon/Tools/DAVE IDE/4.5.0.202105191637/eclipse/workspace/XMC4300-app/Libraries/XMCLib/inc\xmc_fce.h ****  *    * Error notification scheme via dedicated interrupt node for: <br>
 101:D:/Infineon/Tools/DAVE IDE/4.5.0.202105191637/eclipse/workspace/XMC4300-app/Libraries/XMCLib/inc\xmc_fce.h ****         a)Transient error detection: Error interrupt generation (maskable) with local status regist
 102:D:/Infineon/Tools/DAVE IDE/4.5.0.202105191637/eclipse/workspace/XMC4300-app/Libraries/XMCLib/inc\xmc_fce.h **** 		  (cleared by software) <br>
 103:D:/Infineon/Tools/DAVE IDE/4.5.0.202105191637/eclipse/workspace/XMC4300-app/Libraries/XMCLib/inc\xmc_fce.h ****         b)Checksum failure: Error interrupt generation (maskable) with local status register (clear
 104:D:/Infineon/Tools/DAVE IDE/4.5.0.202105191637/eclipse/workspace/XMC4300-app/Libraries/XMCLib/inc\xmc_fce.h **** 
 105:D:/Infineon/Tools/DAVE IDE/4.5.0.202105191637/eclipse/workspace/XMC4300-app/Libraries/XMCLib/inc\xmc_fce.h ****      FCE provides one interrupt line to the interrupt system. Each CRC engine has its own set of fl
 106:D:/Infineon/Tools/DAVE IDE/4.5.0.202105191637/eclipse/workspace/XMC4300-app/Libraries/XMCLib/inc\xmc_fce.h **** 
 107:D:/Infineon/Tools/DAVE IDE/4.5.0.202105191637/eclipse/workspace/XMC4300-app/Libraries/XMCLib/inc\xmc_fce.h ****  * @{
 108:D:/Infineon/Tools/DAVE IDE/4.5.0.202105191637/eclipse/workspace/XMC4300-app/Libraries/XMCLib/inc\xmc_fce.h ****  */
 109:D:/Infineon/Tools/DAVE IDE/4.5.0.202105191637/eclipse/workspace/XMC4300-app/Libraries/XMCLib/inc\xmc_fce.h **** 
 110:D:/Infineon/Tools/DAVE IDE/4.5.0.202105191637/eclipse/workspace/XMC4300-app/Libraries/XMCLib/inc\xmc_fce.h **** /**************************************************************************************************
 111:D:/Infineon/Tools/DAVE IDE/4.5.0.202105191637/eclipse/workspace/XMC4300-app/Libraries/XMCLib/inc\xmc_fce.h ****  * MACROS
 112:D:/Infineon/Tools/DAVE IDE/4.5.0.202105191637/eclipse/workspace/XMC4300-app/Libraries/XMCLib/inc\xmc_fce.h ****  **************************************************************************************************
 113:D:/Infineon/Tools/DAVE IDE/4.5.0.202105191637/eclipse/workspace/XMC4300-app/Libraries/XMCLib/inc\xmc_fce.h **** 
 114:D:/Infineon/Tools/DAVE IDE/4.5.0.202105191637/eclipse/workspace/XMC4300-app/Libraries/XMCLib/inc\xmc_fce.h **** #define XMC_FCE_CRC32_0        FCE_KE0 /**< Kernel 0 <br> */
 115:D:/Infineon/Tools/DAVE IDE/4.5.0.202105191637/eclipse/workspace/XMC4300-app/Libraries/XMCLib/inc\xmc_fce.h **** #define XMC_FCE_CRC32_1        FCE_KE1 /**< Kernel 1 <br> */
 116:D:/Infineon/Tools/DAVE IDE/4.5.0.202105191637/eclipse/workspace/XMC4300-app/Libraries/XMCLib/inc\xmc_fce.h **** #define XMC_FCE_CRC16          FCE_KE2 /**< Kernel 2 <br> */
 117:D:/Infineon/Tools/DAVE IDE/4.5.0.202105191637/eclipse/workspace/XMC4300-app/Libraries/XMCLib/inc\xmc_fce.h **** #define XMC_FCE_CRC8           FCE_KE3 /**< Kernel 3 <br> */
 118:D:/Infineon/Tools/DAVE IDE/4.5.0.202105191637/eclipse/workspace/XMC4300-app/Libraries/XMCLib/inc\xmc_fce.h **** 
 119:D:/Infineon/Tools/DAVE IDE/4.5.0.202105191637/eclipse/workspace/XMC4300-app/Libraries/XMCLib/inc\xmc_fce.h **** #define XMC_FCE_REFIN_SET      (1U) /**< Enables input reflection */
 120:D:/Infineon/Tools/DAVE IDE/4.5.0.202105191637/eclipse/workspace/XMC4300-app/Libraries/XMCLib/inc\xmc_fce.h **** #define XMC_FCE_REFIN_RESET    (0U) /**< Disables input reflection */
 121:D:/Infineon/Tools/DAVE IDE/4.5.0.202105191637/eclipse/workspace/XMC4300-app/Libraries/XMCLib/inc\xmc_fce.h **** #define XMC_FCE_REFOUT_SET     (1U) /**< Enables output reflection */
 122:D:/Infineon/Tools/DAVE IDE/4.5.0.202105191637/eclipse/workspace/XMC4300-app/Libraries/XMCLib/inc\xmc_fce.h **** #define XMC_FCE_REFOUT_RESET   (0U) /**< Disables output reflection */
 123:D:/Infineon/Tools/DAVE IDE/4.5.0.202105191637/eclipse/workspace/XMC4300-app/Libraries/XMCLib/inc\xmc_fce.h **** #define XMC_FCE_INVSEL_SET     (1U) /**< Enables output inversion */
 124:D:/Infineon/Tools/DAVE IDE/4.5.0.202105191637/eclipse/workspace/XMC4300-app/Libraries/XMCLib/inc\xmc_fce.h **** #define XMC_FCE_INVSEL_RESET   (0U) /**< Disables output inversion */
 125:D:/Infineon/Tools/DAVE IDE/4.5.0.202105191637/eclipse/workspace/XMC4300-app/Libraries/XMCLib/inc\xmc_fce.h **** 
 126:D:/Infineon/Tools/DAVE IDE/4.5.0.202105191637/eclipse/workspace/XMC4300-app/Libraries/XMCLib/inc\xmc_fce.h **** /**************************************************************************************************
 127:D:/Infineon/Tools/DAVE IDE/4.5.0.202105191637/eclipse/workspace/XMC4300-app/Libraries/XMCLib/inc\xmc_fce.h ****  * ENUMS
 128:D:/Infineon/Tools/DAVE IDE/4.5.0.202105191637/eclipse/workspace/XMC4300-app/Libraries/XMCLib/inc\xmc_fce.h ****  **************************************************************************************************
 129:D:/Infineon/Tools/DAVE IDE/4.5.0.202105191637/eclipse/workspace/XMC4300-app/Libraries/XMCLib/inc\xmc_fce.h **** 
 130:D:/Infineon/Tools/DAVE IDE/4.5.0.202105191637/eclipse/workspace/XMC4300-app/Libraries/XMCLib/inc\xmc_fce.h **** /**
 131:D:/Infineon/Tools/DAVE IDE/4.5.0.202105191637/eclipse/workspace/XMC4300-app/Libraries/XMCLib/inc\xmc_fce.h ****  * FCE interrupt configuration
 132:D:/Infineon/Tools/DAVE IDE/4.5.0.202105191637/eclipse/workspace/XMC4300-app/Libraries/XMCLib/inc\xmc_fce.h ****  */
 133:D:/Infineon/Tools/DAVE IDE/4.5.0.202105191637/eclipse/workspace/XMC4300-app/Libraries/XMCLib/inc\xmc_fce.h **** typedef enum XMC_FCE_CONFIG_INTERRUPT
 134:D:/Infineon/Tools/DAVE IDE/4.5.0.202105191637/eclipse/workspace/XMC4300-app/Libraries/XMCLib/inc\xmc_fce.h **** {
 135:D:/Infineon/Tools/DAVE IDE/4.5.0.202105191637/eclipse/workspace/XMC4300-app/Libraries/XMCLib/inc\xmc_fce.h ****   XMC_FCE_CFG_CONFIG_CMI = FCE_KE_CFG_CMI_Msk, /**< Enables CRC Mismatch interrupt \n*/
 136:D:/Infineon/Tools/DAVE IDE/4.5.0.202105191637/eclipse/workspace/XMC4300-app/Libraries/XMCLib/inc\xmc_fce.h ****   XMC_FCE_CFG_CONFIG_CEI = FCE_KE_CFG_CEI_Msk, /**< Enables Configuration error interrupt \n*/
 137:D:/Infineon/Tools/DAVE IDE/4.5.0.202105191637/eclipse/workspace/XMC4300-app/Libraries/XMCLib/inc\xmc_fce.h ****   XMC_FCE_CFG_CONFIG_LEI = FCE_KE_CFG_LEI_Msk, /**< Enables Length error interrupt \n*/
 138:D:/Infineon/Tools/DAVE IDE/4.5.0.202105191637/eclipse/workspace/XMC4300-app/Libraries/XMCLib/inc\xmc_fce.h ****   XMC_FCE_CFG_CONFIG_BEI = FCE_KE_CFG_BEI_Msk  /**< Enables Bus error interrupt \n*/
 139:D:/Infineon/Tools/DAVE IDE/4.5.0.202105191637/eclipse/workspace/XMC4300-app/Libraries/XMCLib/inc\xmc_fce.h **** } XMC_FCE_CONFIG_INTERRUPT_t;
 140:D:/Infineon/Tools/DAVE IDE/4.5.0.202105191637/eclipse/workspace/XMC4300-app/Libraries/XMCLib/inc\xmc_fce.h **** 
 141:D:/Infineon/Tools/DAVE IDE/4.5.0.202105191637/eclipse/workspace/XMC4300-app/Libraries/XMCLib/inc\xmc_fce.h **** /**
 142:D:/Infineon/Tools/DAVE IDE/4.5.0.202105191637/eclipse/workspace/XMC4300-app/Libraries/XMCLib/inc\xmc_fce.h ****  * FCE operation configuration
 143:D:/Infineon/Tools/DAVE IDE/4.5.0.202105191637/eclipse/workspace/XMC4300-app/Libraries/XMCLib/inc\xmc_fce.h ****  */
 144:D:/Infineon/Tools/DAVE IDE/4.5.0.202105191637/eclipse/workspace/XMC4300-app/Libraries/XMCLib/inc\xmc_fce.h **** typedef enum XMC_FCE_CONFIG_OPERATION
 145:D:/Infineon/Tools/DAVE IDE/4.5.0.202105191637/eclipse/workspace/XMC4300-app/Libraries/XMCLib/inc\xmc_fce.h **** {
 146:D:/Infineon/Tools/DAVE IDE/4.5.0.202105191637/eclipse/workspace/XMC4300-app/Libraries/XMCLib/inc\xmc_fce.h ****   XMC_FCE_CFG_CONFIG_CCE = FCE_KE_CFG_CCE_Msk, /**< Enables CRC check */
 147:D:/Infineon/Tools/DAVE IDE/4.5.0.202105191637/eclipse/workspace/XMC4300-app/Libraries/XMCLib/inc\xmc_fce.h ****   XMC_FCE_CFG_CONFIG_ALR = FCE_KE_CFG_ALR_Msk  /**< Enables Automatic length reload */
 148:D:/Infineon/Tools/DAVE IDE/4.5.0.202105191637/eclipse/workspace/XMC4300-app/Libraries/XMCLib/inc\xmc_fce.h **** } XMC_FCE_CONFIG_OPERATION_t;
 149:D:/Infineon/Tools/DAVE IDE/4.5.0.202105191637/eclipse/workspace/XMC4300-app/Libraries/XMCLib/inc\xmc_fce.h **** 
 150:D:/Infineon/Tools/DAVE IDE/4.5.0.202105191637/eclipse/workspace/XMC4300-app/Libraries/XMCLib/inc\xmc_fce.h **** /**
 151:D:/Infineon/Tools/DAVE IDE/4.5.0.202105191637/eclipse/workspace/XMC4300-app/Libraries/XMCLib/inc\xmc_fce.h ****  * FCE algorithm configuration
 152:D:/Infineon/Tools/DAVE IDE/4.5.0.202105191637/eclipse/workspace/XMC4300-app/Libraries/XMCLib/inc\xmc_fce.h ****  */
 153:D:/Infineon/Tools/DAVE IDE/4.5.0.202105191637/eclipse/workspace/XMC4300-app/Libraries/XMCLib/inc\xmc_fce.h **** typedef enum XMC_FCE_CONFIG_ALGO
 154:D:/Infineon/Tools/DAVE IDE/4.5.0.202105191637/eclipse/workspace/XMC4300-app/Libraries/XMCLib/inc\xmc_fce.h **** {
 155:D:/Infineon/Tools/DAVE IDE/4.5.0.202105191637/eclipse/workspace/XMC4300-app/Libraries/XMCLib/inc\xmc_fce.h ****   XMC_FCE_CFG_CONFIG_REFIN  = FCE_KE_CFG_REFIN_Msk,  /**< Enables input byte reflection */
 156:D:/Infineon/Tools/DAVE IDE/4.5.0.202105191637/eclipse/workspace/XMC4300-app/Libraries/XMCLib/inc\xmc_fce.h ****   XMC_FCE_CFG_CONFIG_REFOUT = FCE_KE_CFG_REFOUT_Msk, /**< Enables Final CRC reflection */
 157:D:/Infineon/Tools/DAVE IDE/4.5.0.202105191637/eclipse/workspace/XMC4300-app/Libraries/XMCLib/inc\xmc_fce.h ****   XMC_FCE_CFG_CONFIG_XSEL   = FCE_KE_CFG_XSEL_Msk    /**< Enables output inversion */
 158:D:/Infineon/Tools/DAVE IDE/4.5.0.202105191637/eclipse/workspace/XMC4300-app/Libraries/XMCLib/inc\xmc_fce.h **** } XMC_FCE_CONFIG_ALGO_t;
 159:D:/Infineon/Tools/DAVE IDE/4.5.0.202105191637/eclipse/workspace/XMC4300-app/Libraries/XMCLib/inc\xmc_fce.h **** 
 160:D:/Infineon/Tools/DAVE IDE/4.5.0.202105191637/eclipse/workspace/XMC4300-app/Libraries/XMCLib/inc\xmc_fce.h **** /**
 161:D:/Infineon/Tools/DAVE IDE/4.5.0.202105191637/eclipse/workspace/XMC4300-app/Libraries/XMCLib/inc\xmc_fce.h ****  * FCE status flag configuration
 162:D:/Infineon/Tools/DAVE IDE/4.5.0.202105191637/eclipse/workspace/XMC4300-app/Libraries/XMCLib/inc\xmc_fce.h ****  */
 163:D:/Infineon/Tools/DAVE IDE/4.5.0.202105191637/eclipse/workspace/XMC4300-app/Libraries/XMCLib/inc\xmc_fce.h **** typedef enum XMC_FCE_STS_FLAG
 164:D:/Infineon/Tools/DAVE IDE/4.5.0.202105191637/eclipse/workspace/XMC4300-app/Libraries/XMCLib/inc\xmc_fce.h **** {
 165:D:/Infineon/Tools/DAVE IDE/4.5.0.202105191637/eclipse/workspace/XMC4300-app/Libraries/XMCLib/inc\xmc_fce.h ****   XMC_FCE_STS_MISMATCH_CRC = FCE_KE_STS_CMF_Msk, /**< CRC Mismatch flag */
 166:D:/Infineon/Tools/DAVE IDE/4.5.0.202105191637/eclipse/workspace/XMC4300-app/Libraries/XMCLib/inc\xmc_fce.h ****   XMC_FCE_STS_CONFIG_ERROR = FCE_KE_STS_CEF_Msk, /**< Configuration Error flag */
 167:D:/Infineon/Tools/DAVE IDE/4.5.0.202105191637/eclipse/workspace/XMC4300-app/Libraries/XMCLib/inc\xmc_fce.h ****   XMC_FCE_STS_LENGTH_ERROR = FCE_KE_STS_LEF_Msk, /**< Length Error flag */
 168:D:/Infineon/Tools/DAVE IDE/4.5.0.202105191637/eclipse/workspace/XMC4300-app/Libraries/XMCLib/inc\xmc_fce.h ****   XMC_FCE_STS_BUS_ERROR    = FCE_KE_STS_BEF_Msk	 /**< Bus Error flag */
 169:D:/Infineon/Tools/DAVE IDE/4.5.0.202105191637/eclipse/workspace/XMC4300-app/Libraries/XMCLib/inc\xmc_fce.h **** } XMC_FCE_STS_FLAG_t;
 170:D:/Infineon/Tools/DAVE IDE/4.5.0.202105191637/eclipse/workspace/XMC4300-app/Libraries/XMCLib/inc\xmc_fce.h **** 
 171:D:/Infineon/Tools/DAVE IDE/4.5.0.202105191637/eclipse/workspace/XMC4300-app/Libraries/XMCLib/inc\xmc_fce.h **** /**
 172:D:/Infineon/Tools/DAVE IDE/4.5.0.202105191637/eclipse/workspace/XMC4300-app/Libraries/XMCLib/inc\xmc_fce.h ****  * FCE control configuration
 173:D:/Infineon/Tools/DAVE IDE/4.5.0.202105191637/eclipse/workspace/XMC4300-app/Libraries/XMCLib/inc\xmc_fce.h ****  */
 174:D:/Infineon/Tools/DAVE IDE/4.5.0.202105191637/eclipse/workspace/XMC4300-app/Libraries/XMCLib/inc\xmc_fce.h **** typedef enum XMC_FCE_CTR_TEST
 175:D:/Infineon/Tools/DAVE IDE/4.5.0.202105191637/eclipse/workspace/XMC4300-app/Libraries/XMCLib/inc\xmc_fce.h **** {
 176:D:/Infineon/Tools/DAVE IDE/4.5.0.202105191637/eclipse/workspace/XMC4300-app/Libraries/XMCLib/inc\xmc_fce.h ****   XMC_FCE_CTR_MISMATCH_CRC   = FCE_KE_CTR_FCM_Msk,      /**< Forces CRC mismatch */
 177:D:/Infineon/Tools/DAVE IDE/4.5.0.202105191637/eclipse/workspace/XMC4300-app/Libraries/XMCLib/inc\xmc_fce.h ****   XMC_FCE_CTR_MISMATCH_CFG   = FCE_KE_CTR_FRM_CFG_Msk,	/**< Forces CFG Register mismatch */
 178:D:/Infineon/Tools/DAVE IDE/4.5.0.202105191637/eclipse/workspace/XMC4300-app/Libraries/XMCLib/inc\xmc_fce.h ****   XMC_FCE_CTR_MISMATCH_CHECK = FCE_KE_CTR_FRM_CHECK_Msk /**< Forces CRC Check Register mismatch */
 179:D:/Infineon/Tools/DAVE IDE/4.5.0.202105191637/eclipse/workspace/XMC4300-app/Libraries/XMCLib/inc\xmc_fce.h **** } XMC_FCE_CTR_TEST_t;
 180:D:/Infineon/Tools/DAVE IDE/4.5.0.202105191637/eclipse/workspace/XMC4300-app/Libraries/XMCLib/inc\xmc_fce.h **** 
 181:D:/Infineon/Tools/DAVE IDE/4.5.0.202105191637/eclipse/workspace/XMC4300-app/Libraries/XMCLib/inc\xmc_fce.h **** /**
 182:D:/Infineon/Tools/DAVE IDE/4.5.0.202105191637/eclipse/workspace/XMC4300-app/Libraries/XMCLib/inc\xmc_fce.h ****  * FCE status enumeration
 183:D:/Infineon/Tools/DAVE IDE/4.5.0.202105191637/eclipse/workspace/XMC4300-app/Libraries/XMCLib/inc\xmc_fce.h ****  */
 184:D:/Infineon/Tools/DAVE IDE/4.5.0.202105191637/eclipse/workspace/XMC4300-app/Libraries/XMCLib/inc\xmc_fce.h **** typedef enum XMC_FCE_STATUS
 185:D:/Infineon/Tools/DAVE IDE/4.5.0.202105191637/eclipse/workspace/XMC4300-app/Libraries/XMCLib/inc\xmc_fce.h **** {
 186:D:/Infineon/Tools/DAVE IDE/4.5.0.202105191637/eclipse/workspace/XMC4300-app/Libraries/XMCLib/inc\xmc_fce.h ****   XMC_FCE_STATUS_OK = 0, /**< Returns OK on success */
 187:D:/Infineon/Tools/DAVE IDE/4.5.0.202105191637/eclipse/workspace/XMC4300-app/Libraries/XMCLib/inc\xmc_fce.h ****   XMC_FCE_STATUS_BUSY,   /**< Returns BUSY when API is busy with a previous request */
 188:D:/Infineon/Tools/DAVE IDE/4.5.0.202105191637/eclipse/workspace/XMC4300-app/Libraries/XMCLib/inc\xmc_fce.h ****   XMC_FCE_STATUS_ERROR   /**< Returns ERROR when API cannot fulfil request */
 189:D:/Infineon/Tools/DAVE IDE/4.5.0.202105191637/eclipse/workspace/XMC4300-app/Libraries/XMCLib/inc\xmc_fce.h **** } XMC_FCE_STATUS_t;
 190:D:/Infineon/Tools/DAVE IDE/4.5.0.202105191637/eclipse/workspace/XMC4300-app/Libraries/XMCLib/inc\xmc_fce.h **** 
 191:D:/Infineon/Tools/DAVE IDE/4.5.0.202105191637/eclipse/workspace/XMC4300-app/Libraries/XMCLib/inc\xmc_fce.h **** /**************************************************************************************************
 192:D:/Infineon/Tools/DAVE IDE/4.5.0.202105191637/eclipse/workspace/XMC4300-app/Libraries/XMCLib/inc\xmc_fce.h ****  * DATA STRUCTURES
 193:D:/Infineon/Tools/DAVE IDE/4.5.0.202105191637/eclipse/workspace/XMC4300-app/Libraries/XMCLib/inc\xmc_fce.h ****  **************************************************************************************************
 194:D:/Infineon/Tools/DAVE IDE/4.5.0.202105191637/eclipse/workspace/XMC4300-app/Libraries/XMCLib/inc\xmc_fce.h **** 
 195:D:/Infineon/Tools/DAVE IDE/4.5.0.202105191637/eclipse/workspace/XMC4300-app/Libraries/XMCLib/inc\xmc_fce.h **** /**
 196:D:/Infineon/Tools/DAVE IDE/4.5.0.202105191637/eclipse/workspace/XMC4300-app/Libraries/XMCLib/inc\xmc_fce.h ****  * FCE kernel
 197:D:/Infineon/Tools/DAVE IDE/4.5.0.202105191637/eclipse/workspace/XMC4300-app/Libraries/XMCLib/inc\xmc_fce.h ****  */
 198:D:/Infineon/Tools/DAVE IDE/4.5.0.202105191637/eclipse/workspace/XMC4300-app/Libraries/XMCLib/inc\xmc_fce.h **** typedef FCE_KE_TypeDef XMC_FCE_Kernel_t;
 199:D:/Infineon/Tools/DAVE IDE/4.5.0.202105191637/eclipse/workspace/XMC4300-app/Libraries/XMCLib/inc\xmc_fce.h **** 
 200:D:/Infineon/Tools/DAVE IDE/4.5.0.202105191637/eclipse/workspace/XMC4300-app/Libraries/XMCLib/inc\xmc_fce.h **** /* Anonymous structure/union guard start */
 201:D:/Infineon/Tools/DAVE IDE/4.5.0.202105191637/eclipse/workspace/XMC4300-app/Libraries/XMCLib/inc\xmc_fce.h **** #if defined (__CC_ARM)
 202:D:/Infineon/Tools/DAVE IDE/4.5.0.202105191637/eclipse/workspace/XMC4300-app/Libraries/XMCLib/inc\xmc_fce.h **** #pragma push
 203:D:/Infineon/Tools/DAVE IDE/4.5.0.202105191637/eclipse/workspace/XMC4300-app/Libraries/XMCLib/inc\xmc_fce.h **** #pragma anon_unions
 204:D:/Infineon/Tools/DAVE IDE/4.5.0.202105191637/eclipse/workspace/XMC4300-app/Libraries/XMCLib/inc\xmc_fce.h **** #elif defined (__TASKING__)
 205:D:/Infineon/Tools/DAVE IDE/4.5.0.202105191637/eclipse/workspace/XMC4300-app/Libraries/XMCLib/inc\xmc_fce.h **** #pragma warning 586
 206:D:/Infineon/Tools/DAVE IDE/4.5.0.202105191637/eclipse/workspace/XMC4300-app/Libraries/XMCLib/inc\xmc_fce.h **** #endif
 207:D:/Infineon/Tools/DAVE IDE/4.5.0.202105191637/eclipse/workspace/XMC4300-app/Libraries/XMCLib/inc\xmc_fce.h **** 
 208:D:/Infineon/Tools/DAVE IDE/4.5.0.202105191637/eclipse/workspace/XMC4300-app/Libraries/XMCLib/inc\xmc_fce.h **** /**
 209:D:/Infineon/Tools/DAVE IDE/4.5.0.202105191637/eclipse/workspace/XMC4300-app/Libraries/XMCLib/inc\xmc_fce.h ****  * @brief XMC_FCE configuration structure
 210:D:/Infineon/Tools/DAVE IDE/4.5.0.202105191637/eclipse/workspace/XMC4300-app/Libraries/XMCLib/inc\xmc_fce.h ****  */
 211:D:/Infineon/Tools/DAVE IDE/4.5.0.202105191637/eclipse/workspace/XMC4300-app/Libraries/XMCLib/inc\xmc_fce.h **** typedef struct XMC_FCE_CONFIG
 212:D:/Infineon/Tools/DAVE IDE/4.5.0.202105191637/eclipse/workspace/XMC4300-app/Libraries/XMCLib/inc\xmc_fce.h **** {
 213:D:/Infineon/Tools/DAVE IDE/4.5.0.202105191637/eclipse/workspace/XMC4300-app/Libraries/XMCLib/inc\xmc_fce.h ****   union
 214:D:/Infineon/Tools/DAVE IDE/4.5.0.202105191637/eclipse/workspace/XMC4300-app/Libraries/XMCLib/inc\xmc_fce.h ****   {
 215:D:/Infineon/Tools/DAVE IDE/4.5.0.202105191637/eclipse/workspace/XMC4300-app/Libraries/XMCLib/inc\xmc_fce.h ****     uint32_t regval;
 216:D:/Infineon/Tools/DAVE IDE/4.5.0.202105191637/eclipse/workspace/XMC4300-app/Libraries/XMCLib/inc\xmc_fce.h ****     struct
 217:D:/Infineon/Tools/DAVE IDE/4.5.0.202105191637/eclipse/workspace/XMC4300-app/Libraries/XMCLib/inc\xmc_fce.h ****     {
 218:D:/Infineon/Tools/DAVE IDE/4.5.0.202105191637/eclipse/workspace/XMC4300-app/Libraries/XMCLib/inc\xmc_fce.h ****       uint32_t               : 8;
 219:D:/Infineon/Tools/DAVE IDE/4.5.0.202105191637/eclipse/workspace/XMC4300-app/Libraries/XMCLib/inc\xmc_fce.h ****       uint32_t config_refin  : 1;  /**< Enables byte-wise reflection */
 220:D:/Infineon/Tools/DAVE IDE/4.5.0.202105191637/eclipse/workspace/XMC4300-app/Libraries/XMCLib/inc\xmc_fce.h ****       uint32_t config_refout : 1;  /**< Enables bit-wise reflection */
 221:D:/Infineon/Tools/DAVE IDE/4.5.0.202105191637/eclipse/workspace/XMC4300-app/Libraries/XMCLib/inc\xmc_fce.h ****       uint32_t config_xsel   : 1;  /**< Enables output inversion */
 222:D:/Infineon/Tools/DAVE IDE/4.5.0.202105191637/eclipse/workspace/XMC4300-app/Libraries/XMCLib/inc\xmc_fce.h ****       uint32_t               : 21; /**< Reserved bits */
 223:D:/Infineon/Tools/DAVE IDE/4.5.0.202105191637/eclipse/workspace/XMC4300-app/Libraries/XMCLib/inc\xmc_fce.h ****     };
 224:D:/Infineon/Tools/DAVE IDE/4.5.0.202105191637/eclipse/workspace/XMC4300-app/Libraries/XMCLib/inc\xmc_fce.h ****   };
 225:D:/Infineon/Tools/DAVE IDE/4.5.0.202105191637/eclipse/workspace/XMC4300-app/Libraries/XMCLib/inc\xmc_fce.h **** } XMC_FCE_CONFIG_t;
 226:D:/Infineon/Tools/DAVE IDE/4.5.0.202105191637/eclipse/workspace/XMC4300-app/Libraries/XMCLib/inc\xmc_fce.h **** 
 227:D:/Infineon/Tools/DAVE IDE/4.5.0.202105191637/eclipse/workspace/XMC4300-app/Libraries/XMCLib/inc\xmc_fce.h **** /* Anonymous structure/union guard end */
 228:D:/Infineon/Tools/DAVE IDE/4.5.0.202105191637/eclipse/workspace/XMC4300-app/Libraries/XMCLib/inc\xmc_fce.h **** #if defined (__CC_ARM)
 229:D:/Infineon/Tools/DAVE IDE/4.5.0.202105191637/eclipse/workspace/XMC4300-app/Libraries/XMCLib/inc\xmc_fce.h **** #pragma pop
 230:D:/Infineon/Tools/DAVE IDE/4.5.0.202105191637/eclipse/workspace/XMC4300-app/Libraries/XMCLib/inc\xmc_fce.h **** #elif defined (__TASKING__)
 231:D:/Infineon/Tools/DAVE IDE/4.5.0.202105191637/eclipse/workspace/XMC4300-app/Libraries/XMCLib/inc\xmc_fce.h **** #pragma warning restore
 232:D:/Infineon/Tools/DAVE IDE/4.5.0.202105191637/eclipse/workspace/XMC4300-app/Libraries/XMCLib/inc\xmc_fce.h **** #endif
 233:D:/Infineon/Tools/DAVE IDE/4.5.0.202105191637/eclipse/workspace/XMC4300-app/Libraries/XMCLib/inc\xmc_fce.h **** 
 234:D:/Infineon/Tools/DAVE IDE/4.5.0.202105191637/eclipse/workspace/XMC4300-app/Libraries/XMCLib/inc\xmc_fce.h **** /**
 235:D:/Infineon/Tools/DAVE IDE/4.5.0.202105191637/eclipse/workspace/XMC4300-app/Libraries/XMCLib/inc\xmc_fce.h ****  * FCE handler
 236:D:/Infineon/Tools/DAVE IDE/4.5.0.202105191637/eclipse/workspace/XMC4300-app/Libraries/XMCLib/inc\xmc_fce.h ****  */
 237:D:/Infineon/Tools/DAVE IDE/4.5.0.202105191637/eclipse/workspace/XMC4300-app/Libraries/XMCLib/inc\xmc_fce.h **** typedef struct XMC_FCE
 238:D:/Infineon/Tools/DAVE IDE/4.5.0.202105191637/eclipse/workspace/XMC4300-app/Libraries/XMCLib/inc\xmc_fce.h **** {
 239:D:/Infineon/Tools/DAVE IDE/4.5.0.202105191637/eclipse/workspace/XMC4300-app/Libraries/XMCLib/inc\xmc_fce.h ****   XMC_FCE_Kernel_t *kernel_ptr;    /**< FCE Kernel Pointer */
 240:D:/Infineon/Tools/DAVE IDE/4.5.0.202105191637/eclipse/workspace/XMC4300-app/Libraries/XMCLib/inc\xmc_fce.h ****   XMC_FCE_CONFIG_t fce_cfg_update; /**< FCE CFG register update */
 241:D:/Infineon/Tools/DAVE IDE/4.5.0.202105191637/eclipse/workspace/XMC4300-app/Libraries/XMCLib/inc\xmc_fce.h ****   uint32_t seedvalue;              /**< CRC seed value to be used */
 242:D:/Infineon/Tools/DAVE IDE/4.5.0.202105191637/eclipse/workspace/XMC4300-app/Libraries/XMCLib/inc\xmc_fce.h **** } XMC_FCE_t;
 243:D:/Infineon/Tools/DAVE IDE/4.5.0.202105191637/eclipse/workspace/XMC4300-app/Libraries/XMCLib/inc\xmc_fce.h **** 
 244:D:/Infineon/Tools/DAVE IDE/4.5.0.202105191637/eclipse/workspace/XMC4300-app/Libraries/XMCLib/inc\xmc_fce.h **** /**************************************************************************************************
 245:D:/Infineon/Tools/DAVE IDE/4.5.0.202105191637/eclipse/workspace/XMC4300-app/Libraries/XMCLib/inc\xmc_fce.h ****  * API PROTOTYPES
 246:D:/Infineon/Tools/DAVE IDE/4.5.0.202105191637/eclipse/workspace/XMC4300-app/Libraries/XMCLib/inc\xmc_fce.h ****  **************************************************************************************************
 247:D:/Infineon/Tools/DAVE IDE/4.5.0.202105191637/eclipse/workspace/XMC4300-app/Libraries/XMCLib/inc\xmc_fce.h **** 
 248:D:/Infineon/Tools/DAVE IDE/4.5.0.202105191637/eclipse/workspace/XMC4300-app/Libraries/XMCLib/inc\xmc_fce.h **** #ifdef __cplusplus
 249:D:/Infineon/Tools/DAVE IDE/4.5.0.202105191637/eclipse/workspace/XMC4300-app/Libraries/XMCLib/inc\xmc_fce.h **** extern "C" {
 250:D:/Infineon/Tools/DAVE IDE/4.5.0.202105191637/eclipse/workspace/XMC4300-app/Libraries/XMCLib/inc\xmc_fce.h **** #endif
 251:D:/Infineon/Tools/DAVE IDE/4.5.0.202105191637/eclipse/workspace/XMC4300-app/Libraries/XMCLib/inc\xmc_fce.h **** 
 252:D:/Infineon/Tools/DAVE IDE/4.5.0.202105191637/eclipse/workspace/XMC4300-app/Libraries/XMCLib/inc\xmc_fce.h **** /**
 253:D:/Infineon/Tools/DAVE IDE/4.5.0.202105191637/eclipse/workspace/XMC4300-app/Libraries/XMCLib/inc\xmc_fce.h ****  * @param None
 254:D:/Infineon/Tools/DAVE IDE/4.5.0.202105191637/eclipse/workspace/XMC4300-app/Libraries/XMCLib/inc\xmc_fce.h ****  * @return uint32_t Module revision number
 255:D:/Infineon/Tools/DAVE IDE/4.5.0.202105191637/eclipse/workspace/XMC4300-app/Libraries/XMCLib/inc\xmc_fce.h ****  *
 256:D:/Infineon/Tools/DAVE IDE/4.5.0.202105191637/eclipse/workspace/XMC4300-app/Libraries/XMCLib/inc\xmc_fce.h ****  * \par<b>Description: </b><br>
 257:D:/Infineon/Tools/DAVE IDE/4.5.0.202105191637/eclipse/workspace/XMC4300-app/Libraries/XMCLib/inc\xmc_fce.h ****  * Read FCE module revision number <br>
 258:D:/Infineon/Tools/DAVE IDE/4.5.0.202105191637/eclipse/workspace/XMC4300-app/Libraries/XMCLib/inc\xmc_fce.h ****  *
 259:D:/Infineon/Tools/DAVE IDE/4.5.0.202105191637/eclipse/workspace/XMC4300-app/Libraries/XMCLib/inc\xmc_fce.h ****  * \par
 260:D:/Infineon/Tools/DAVE IDE/4.5.0.202105191637/eclipse/workspace/XMC4300-app/Libraries/XMCLib/inc\xmc_fce.h ****  * The value of a module revision starts with 0x01 (first revision). The current revision
 261:D:/Infineon/Tools/DAVE IDE/4.5.0.202105191637/eclipse/workspace/XMC4300-app/Libraries/XMCLib/inc\xmc_fce.h ****  * number is 0x01.
 262:D:/Infineon/Tools/DAVE IDE/4.5.0.202105191637/eclipse/workspace/XMC4300-app/Libraries/XMCLib/inc\xmc_fce.h ****  */
 263:D:/Infineon/Tools/DAVE IDE/4.5.0.202105191637/eclipse/workspace/XMC4300-app/Libraries/XMCLib/inc\xmc_fce.h **** __STATIC_INLINE uint32_t XMC_FCE_ReadModuleRev(void)
 264:D:/Infineon/Tools/DAVE IDE/4.5.0.202105191637/eclipse/workspace/XMC4300-app/Libraries/XMCLib/inc\xmc_fce.h **** {
 265:D:/Infineon/Tools/DAVE IDE/4.5.0.202105191637/eclipse/workspace/XMC4300-app/Libraries/XMCLib/inc\xmc_fce.h ****   return (uint32_t)(FCE->ID & FCE_ID_MOD_REV_Msk);
 266:D:/Infineon/Tools/DAVE IDE/4.5.0.202105191637/eclipse/workspace/XMC4300-app/Libraries/XMCLib/inc\xmc_fce.h **** }
 267:D:/Infineon/Tools/DAVE IDE/4.5.0.202105191637/eclipse/workspace/XMC4300-app/Libraries/XMCLib/inc\xmc_fce.h **** 
 268:D:/Infineon/Tools/DAVE IDE/4.5.0.202105191637/eclipse/workspace/XMC4300-app/Libraries/XMCLib/inc\xmc_fce.h **** /**
 269:D:/Infineon/Tools/DAVE IDE/4.5.0.202105191637/eclipse/workspace/XMC4300-app/Libraries/XMCLib/inc\xmc_fce.h ****  * @param None
 270:D:/Infineon/Tools/DAVE IDE/4.5.0.202105191637/eclipse/workspace/XMC4300-app/Libraries/XMCLib/inc\xmc_fce.h ****  * @return uint32_t Module type
 271:D:/Infineon/Tools/DAVE IDE/4.5.0.202105191637/eclipse/workspace/XMC4300-app/Libraries/XMCLib/inc\xmc_fce.h ****  *
 272:D:/Infineon/Tools/DAVE IDE/4.5.0.202105191637/eclipse/workspace/XMC4300-app/Libraries/XMCLib/inc\xmc_fce.h ****  * \par<b>Description: </b><br>
 273:D:/Infineon/Tools/DAVE IDE/4.5.0.202105191637/eclipse/workspace/XMC4300-app/Libraries/XMCLib/inc\xmc_fce.h ****  * Read the FCE module type <br>
 274:D:/Infineon/Tools/DAVE IDE/4.5.0.202105191637/eclipse/workspace/XMC4300-app/Libraries/XMCLib/inc\xmc_fce.h ****  *
 275:D:/Infineon/Tools/DAVE IDE/4.5.0.202105191637/eclipse/workspace/XMC4300-app/Libraries/XMCLib/inc\xmc_fce.h ****  * \par
 276:D:/Infineon/Tools/DAVE IDE/4.5.0.202105191637/eclipse/workspace/XMC4300-app/Libraries/XMCLib/inc\xmc_fce.h ****  * The return value is currently 0xC0. It defines the module as a 32-bit module.
 277:D:/Infineon/Tools/DAVE IDE/4.5.0.202105191637/eclipse/workspace/XMC4300-app/Libraries/XMCLib/inc\xmc_fce.h ****  */
 278:D:/Infineon/Tools/DAVE IDE/4.5.0.202105191637/eclipse/workspace/XMC4300-app/Libraries/XMCLib/inc\xmc_fce.h **** __STATIC_INLINE uint32_t XMC_FCE_ReadModuleType(void)
 279:D:/Infineon/Tools/DAVE IDE/4.5.0.202105191637/eclipse/workspace/XMC4300-app/Libraries/XMCLib/inc\xmc_fce.h **** {
 280:D:/Infineon/Tools/DAVE IDE/4.5.0.202105191637/eclipse/workspace/XMC4300-app/Libraries/XMCLib/inc\xmc_fce.h ****   return (uint32_t)((FCE->ID & FCE_ID_MOD_TYPE_Msk) >> FCE_ID_MOD_TYPE_Pos);
 281:D:/Infineon/Tools/DAVE IDE/4.5.0.202105191637/eclipse/workspace/XMC4300-app/Libraries/XMCLib/inc\xmc_fce.h **** }
 282:D:/Infineon/Tools/DAVE IDE/4.5.0.202105191637/eclipse/workspace/XMC4300-app/Libraries/XMCLib/inc\xmc_fce.h **** 
 283:D:/Infineon/Tools/DAVE IDE/4.5.0.202105191637/eclipse/workspace/XMC4300-app/Libraries/XMCLib/inc\xmc_fce.h **** /**
 284:D:/Infineon/Tools/DAVE IDE/4.5.0.202105191637/eclipse/workspace/XMC4300-app/Libraries/XMCLib/inc\xmc_fce.h ****  * @param None
 285:D:/Infineon/Tools/DAVE IDE/4.5.0.202105191637/eclipse/workspace/XMC4300-app/Libraries/XMCLib/inc\xmc_fce.h ****  * @return uint32_t Module number
 286:D:/Infineon/Tools/DAVE IDE/4.5.0.202105191637/eclipse/workspace/XMC4300-app/Libraries/XMCLib/inc\xmc_fce.h ****  *
 287:D:/Infineon/Tools/DAVE IDE/4.5.0.202105191637/eclipse/workspace/XMC4300-app/Libraries/XMCLib/inc\xmc_fce.h ****  * \par<b>Description: </b><br>
 288:D:/Infineon/Tools/DAVE IDE/4.5.0.202105191637/eclipse/workspace/XMC4300-app/Libraries/XMCLib/inc\xmc_fce.h ****  * Read FCE module number <br>
 289:D:/Infineon/Tools/DAVE IDE/4.5.0.202105191637/eclipse/workspace/XMC4300-app/Libraries/XMCLib/inc\xmc_fce.h ****  *
 290:D:/Infineon/Tools/DAVE IDE/4.5.0.202105191637/eclipse/workspace/XMC4300-app/Libraries/XMCLib/inc\xmc_fce.h ****  * \par
 291:D:/Infineon/Tools/DAVE IDE/4.5.0.202105191637/eclipse/workspace/XMC4300-app/Libraries/XMCLib/inc\xmc_fce.h ****  * The return value for FCE module is currently 0x00CA.
 292:D:/Infineon/Tools/DAVE IDE/4.5.0.202105191637/eclipse/workspace/XMC4300-app/Libraries/XMCLib/inc\xmc_fce.h ****  */
 293:D:/Infineon/Tools/DAVE IDE/4.5.0.202105191637/eclipse/workspace/XMC4300-app/Libraries/XMCLib/inc\xmc_fce.h **** __STATIC_INLINE uint32_t XMC_FCE_ReadModuleNumber(void)
 294:D:/Infineon/Tools/DAVE IDE/4.5.0.202105191637/eclipse/workspace/XMC4300-app/Libraries/XMCLib/inc\xmc_fce.h **** {
 295:D:/Infineon/Tools/DAVE IDE/4.5.0.202105191637/eclipse/workspace/XMC4300-app/Libraries/XMCLib/inc\xmc_fce.h ****   return ((uint32_t)((FCE->ID & FCE_ID_MOD_NUMBER_Msk) >> FCE_ID_MOD_NUMBER_Pos));
 296:D:/Infineon/Tools/DAVE IDE/4.5.0.202105191637/eclipse/workspace/XMC4300-app/Libraries/XMCLib/inc\xmc_fce.h **** }
 297:D:/Infineon/Tools/DAVE IDE/4.5.0.202105191637/eclipse/workspace/XMC4300-app/Libraries/XMCLib/inc\xmc_fce.h **** 
 298:D:/Infineon/Tools/DAVE IDE/4.5.0.202105191637/eclipse/workspace/XMC4300-app/Libraries/XMCLib/inc\xmc_fce.h **** /**
 299:D:/Infineon/Tools/DAVE IDE/4.5.0.202105191637/eclipse/workspace/XMC4300-app/Libraries/XMCLib/inc\xmc_fce.h ****  * @param None
 300:D:/Infineon/Tools/DAVE IDE/4.5.0.202105191637/eclipse/workspace/XMC4300-app/Libraries/XMCLib/inc\xmc_fce.h ****  * @return bool Disable status
 301:D:/Infineon/Tools/DAVE IDE/4.5.0.202105191637/eclipse/workspace/XMC4300-app/Libraries/XMCLib/inc\xmc_fce.h ****  *
 302:D:/Infineon/Tools/DAVE IDE/4.5.0.202105191637/eclipse/workspace/XMC4300-app/Libraries/XMCLib/inc\xmc_fce.h ****  *
 303:D:/Infineon/Tools/DAVE IDE/4.5.0.202105191637/eclipse/workspace/XMC4300-app/Libraries/XMCLib/inc\xmc_fce.h ****  * \par<b>Description: </b><br>
 304:D:/Infineon/Tools/DAVE IDE/4.5.0.202105191637/eclipse/workspace/XMC4300-app/Libraries/XMCLib/inc\xmc_fce.h ****  * Return the disable status <br>
 305:D:/Infineon/Tools/DAVE IDE/4.5.0.202105191637/eclipse/workspace/XMC4300-app/Libraries/XMCLib/inc\xmc_fce.h ****  *
 306:D:/Infineon/Tools/DAVE IDE/4.5.0.202105191637/eclipse/workspace/XMC4300-app/Libraries/XMCLib/inc\xmc_fce.h ****  * \par
 307:D:/Infineon/Tools/DAVE IDE/4.5.0.202105191637/eclipse/workspace/XMC4300-app/Libraries/XMCLib/inc\xmc_fce.h ****  * The function reads the FCE module disable status (DISS) bit. It returns "true" if
 308:D:/Infineon/Tools/DAVE IDE/4.5.0.202105191637/eclipse/workspace/XMC4300-app/Libraries/XMCLib/inc\xmc_fce.h ****  * set, "false" otherwise.
 309:D:/Infineon/Tools/DAVE IDE/4.5.0.202105191637/eclipse/workspace/XMC4300-app/Libraries/XMCLib/inc\xmc_fce.h ****  */
 310:D:/Infineon/Tools/DAVE IDE/4.5.0.202105191637/eclipse/workspace/XMC4300-app/Libraries/XMCLib/inc\xmc_fce.h **** __STATIC_INLINE bool XMC_FCE_Get_DisableStatus(void)
 311:D:/Infineon/Tools/DAVE IDE/4.5.0.202105191637/eclipse/workspace/XMC4300-app/Libraries/XMCLib/inc\xmc_fce.h **** {
 312:D:/Infineon/Tools/DAVE IDE/4.5.0.202105191637/eclipse/workspace/XMC4300-app/Libraries/XMCLib/inc\xmc_fce.h ****   return (bool)(FCE->CLC &= (uint32_t)~FCE_CLC_DISS_Msk);
 313:D:/Infineon/Tools/DAVE IDE/4.5.0.202105191637/eclipse/workspace/XMC4300-app/Libraries/XMCLib/inc\xmc_fce.h **** }
 314:D:/Infineon/Tools/DAVE IDE/4.5.0.202105191637/eclipse/workspace/XMC4300-app/Libraries/XMCLib/inc\xmc_fce.h **** 
 315:D:/Infineon/Tools/DAVE IDE/4.5.0.202105191637/eclipse/workspace/XMC4300-app/Libraries/XMCLib/inc\xmc_fce.h **** /**
 316:D:/Infineon/Tools/DAVE IDE/4.5.0.202105191637/eclipse/workspace/XMC4300-app/Libraries/XMCLib/inc\xmc_fce.h ****  * @param None
 317:D:/Infineon/Tools/DAVE IDE/4.5.0.202105191637/eclipse/workspace/XMC4300-app/Libraries/XMCLib/inc\xmc_fce.h ****  * @return None
 318:D:/Infineon/Tools/DAVE IDE/4.5.0.202105191637/eclipse/workspace/XMC4300-app/Libraries/XMCLib/inc\xmc_fce.h ****  *
 319:D:/Infineon/Tools/DAVE IDE/4.5.0.202105191637/eclipse/workspace/XMC4300-app/Libraries/XMCLib/inc\xmc_fce.h ****  * \par<b>Description: </b><br>
 320:D:/Infineon/Tools/DAVE IDE/4.5.0.202105191637/eclipse/workspace/XMC4300-app/Libraries/XMCLib/inc\xmc_fce.h ****  * Disable the FCE module <br>
 321:D:/Infineon/Tools/DAVE IDE/4.5.0.202105191637/eclipse/workspace/XMC4300-app/Libraries/XMCLib/inc\xmc_fce.h ****  *
 322:D:/Infineon/Tools/DAVE IDE/4.5.0.202105191637/eclipse/workspace/XMC4300-app/Libraries/XMCLib/inc\xmc_fce.h ****  * \par
 323:D:/Infineon/Tools/DAVE IDE/4.5.0.202105191637/eclipse/workspace/XMC4300-app/Libraries/XMCLib/inc\xmc_fce.h ****  * The function asserts the FCE peripheral reset and sets the DISR bit in the CLC
 324:D:/Infineon/Tools/DAVE IDE/4.5.0.202105191637/eclipse/workspace/XMC4300-app/Libraries/XMCLib/inc\xmc_fce.h ****  * register.
 325:D:/Infineon/Tools/DAVE IDE/4.5.0.202105191637/eclipse/workspace/XMC4300-app/Libraries/XMCLib/inc\xmc_fce.h ****  *
 326:D:/Infineon/Tools/DAVE IDE/4.5.0.202105191637/eclipse/workspace/XMC4300-app/Libraries/XMCLib/inc\xmc_fce.h ****  * \par<b>Note: </b><br>
 327:D:/Infineon/Tools/DAVE IDE/4.5.0.202105191637/eclipse/workspace/XMC4300-app/Libraries/XMCLib/inc\xmc_fce.h ****  * All pending transactions running on the bus slave interface must be completed before
 328:D:/Infineon/Tools/DAVE IDE/4.5.0.202105191637/eclipse/workspace/XMC4300-app/Libraries/XMCLib/inc\xmc_fce.h ****  * entering the disabled state.
 329:D:/Infineon/Tools/DAVE IDE/4.5.0.202105191637/eclipse/workspace/XMC4300-app/Libraries/XMCLib/inc\xmc_fce.h ****  */
 330:D:/Infineon/Tools/DAVE IDE/4.5.0.202105191637/eclipse/workspace/XMC4300-app/Libraries/XMCLib/inc\xmc_fce.h **** void XMC_FCE_Disable(void);
 331:D:/Infineon/Tools/DAVE IDE/4.5.0.202105191637/eclipse/workspace/XMC4300-app/Libraries/XMCLib/inc\xmc_fce.h **** 
 332:D:/Infineon/Tools/DAVE IDE/4.5.0.202105191637/eclipse/workspace/XMC4300-app/Libraries/XMCLib/inc\xmc_fce.h **** /**
 333:D:/Infineon/Tools/DAVE IDE/4.5.0.202105191637/eclipse/workspace/XMC4300-app/Libraries/XMCLib/inc\xmc_fce.h ****  * @param None
 334:D:/Infineon/Tools/DAVE IDE/4.5.0.202105191637/eclipse/workspace/XMC4300-app/Libraries/XMCLib/inc\xmc_fce.h ****  * @return None
 335:D:/Infineon/Tools/DAVE IDE/4.5.0.202105191637/eclipse/workspace/XMC4300-app/Libraries/XMCLib/inc\xmc_fce.h ****  *
 336:D:/Infineon/Tools/DAVE IDE/4.5.0.202105191637/eclipse/workspace/XMC4300-app/Libraries/XMCLib/inc\xmc_fce.h ****  * \par<b>Description: </b><br>
 337:D:/Infineon/Tools/DAVE IDE/4.5.0.202105191637/eclipse/workspace/XMC4300-app/Libraries/XMCLib/inc\xmc_fce.h ****  * Enable the FCE module <br>
 338:D:/Infineon/Tools/DAVE IDE/4.5.0.202105191637/eclipse/workspace/XMC4300-app/Libraries/XMCLib/inc\xmc_fce.h ****  *
 339:D:/Infineon/Tools/DAVE IDE/4.5.0.202105191637/eclipse/workspace/XMC4300-app/Libraries/XMCLib/inc\xmc_fce.h ****  * \par
 340:D:/Infineon/Tools/DAVE IDE/4.5.0.202105191637/eclipse/workspace/XMC4300-app/Libraries/XMCLib/inc\xmc_fce.h ****  * The function de-asserts the peripheral reset and clears the DISR bit CLC register.
 341:D:/Infineon/Tools/DAVE IDE/4.5.0.202105191637/eclipse/workspace/XMC4300-app/Libraries/XMCLib/inc\xmc_fce.h ****  */
 342:D:/Infineon/Tools/DAVE IDE/4.5.0.202105191637/eclipse/workspace/XMC4300-app/Libraries/XMCLib/inc\xmc_fce.h **** void XMC_FCE_Enable(void);
 343:D:/Infineon/Tools/DAVE IDE/4.5.0.202105191637/eclipse/workspace/XMC4300-app/Libraries/XMCLib/inc\xmc_fce.h **** 
 344:D:/Infineon/Tools/DAVE IDE/4.5.0.202105191637/eclipse/workspace/XMC4300-app/Libraries/XMCLib/inc\xmc_fce.h **** /**
 345:D:/Infineon/Tools/DAVE IDE/4.5.0.202105191637/eclipse/workspace/XMC4300-app/Libraries/XMCLib/inc\xmc_fce.h ****  * @param engine Constant pointer to ::XMC_FCE_t, pointing to the FCE base address
 346:D:/Infineon/Tools/DAVE IDE/4.5.0.202105191637/eclipse/workspace/XMC4300-app/Libraries/XMCLib/inc\xmc_fce.h ****  * @return ::XMC_FCE_STATUS_t
 347:D:/Infineon/Tools/DAVE IDE/4.5.0.202105191637/eclipse/workspace/XMC4300-app/Libraries/XMCLib/inc\xmc_fce.h ****  *
 348:D:/Infineon/Tools/DAVE IDE/4.5.0.202105191637/eclipse/workspace/XMC4300-app/Libraries/XMCLib/inc\xmc_fce.h ****  * \par<b>Description: </b><br>
 349:D:/Infineon/Tools/DAVE IDE/4.5.0.202105191637/eclipse/workspace/XMC4300-app/Libraries/XMCLib/inc\xmc_fce.h ****  * Initialize the FCE engine <br>
 350:D:/Infineon/Tools/DAVE IDE/4.5.0.202105191637/eclipse/workspace/XMC4300-app/Libraries/XMCLib/inc\xmc_fce.h ****  *
 351:D:/Infineon/Tools/DAVE IDE/4.5.0.202105191637/eclipse/workspace/XMC4300-app/Libraries/XMCLib/inc\xmc_fce.h ****  * \par
 352:D:/Infineon/Tools/DAVE IDE/4.5.0.202105191637/eclipse/workspace/XMC4300-app/Libraries/XMCLib/inc\xmc_fce.h ****  * The function sets to the CFG and CRC registers with the FCE configuration and
 353:D:/Infineon/Tools/DAVE IDE/4.5.0.202105191637/eclipse/workspace/XMC4300-app/Libraries/XMCLib/inc\xmc_fce.h ****  * seeds values. The function always returns XMC_FCE_STATUS_SUCCESS.
 354:D:/Infineon/Tools/DAVE IDE/4.5.0.202105191637/eclipse/workspace/XMC4300-app/Libraries/XMCLib/inc\xmc_fce.h ****  *
 355:D:/Infineon/Tools/DAVE IDE/4.5.0.202105191637/eclipse/workspace/XMC4300-app/Libraries/XMCLib/inc\xmc_fce.h ****  * \par<b>Note: </b><br>
 356:D:/Infineon/Tools/DAVE IDE/4.5.0.202105191637/eclipse/workspace/XMC4300-app/Libraries/XMCLib/inc\xmc_fce.h ****  * The software must first ensure that the CRC kernel is properly configured with the
 357:D:/Infineon/Tools/DAVE IDE/4.5.0.202105191637/eclipse/workspace/XMC4300-app/Libraries/XMCLib/inc\xmc_fce.h ****  * initial CRC value (seed value).
 358:D:/Infineon/Tools/DAVE IDE/4.5.0.202105191637/eclipse/workspace/XMC4300-app/Libraries/XMCLib/inc\xmc_fce.h ****  */
 359:D:/Infineon/Tools/DAVE IDE/4.5.0.202105191637/eclipse/workspace/XMC4300-app/Libraries/XMCLib/inc\xmc_fce.h **** XMC_FCE_STATUS_t XMC_FCE_Init(const XMC_FCE_t *const engine);
 360:D:/Infineon/Tools/DAVE IDE/4.5.0.202105191637/eclipse/workspace/XMC4300-app/Libraries/XMCLib/inc\xmc_fce.h **** 
 361:D:/Infineon/Tools/DAVE IDE/4.5.0.202105191637/eclipse/workspace/XMC4300-app/Libraries/XMCLib/inc\xmc_fce.h **** /**
 362:D:/Infineon/Tools/DAVE IDE/4.5.0.202105191637/eclipse/workspace/XMC4300-app/Libraries/XMCLib/inc\xmc_fce.h ****  * @param engine Constant pointer to ::XMC_FCE_t, pointing to the FCE base address
 363:D:/Infineon/Tools/DAVE IDE/4.5.0.202105191637/eclipse/workspace/XMC4300-app/Libraries/XMCLib/inc\xmc_fce.h ****  * @param seedvalue Initial CRC value
 364:D:/Infineon/Tools/DAVE IDE/4.5.0.202105191637/eclipse/workspace/XMC4300-app/Libraries/XMCLib/inc\xmc_fce.h ****  * @return None
 365:D:/Infineon/Tools/DAVE IDE/4.5.0.202105191637/eclipse/workspace/XMC4300-app/Libraries/XMCLib/inc\xmc_fce.h ****  *
 366:D:/Infineon/Tools/DAVE IDE/4.5.0.202105191637/eclipse/workspace/XMC4300-app/Libraries/XMCLib/inc\xmc_fce.h ****  * \par<b>Description: </b><br>
 367:D:/Infineon/Tools/DAVE IDE/4.5.0.202105191637/eclipse/workspace/XMC4300-app/Libraries/XMCLib/inc\xmc_fce.h ****  * Initialize FCE seed value
 368:D:/Infineon/Tools/DAVE IDE/4.5.0.202105191637/eclipse/workspace/XMC4300-app/Libraries/XMCLib/inc\xmc_fce.h ****  *
 369:D:/Infineon/Tools/DAVE IDE/4.5.0.202105191637/eclipse/workspace/XMC4300-app/Libraries/XMCLib/inc\xmc_fce.h ****  * \par
 370:D:/Infineon/Tools/DAVE IDE/4.5.0.202105191637/eclipse/workspace/XMC4300-app/Libraries/XMCLib/inc\xmc_fce.h ****  * The function sets the initial CRC (seed) value in the CRC register.
 371:D:/Infineon/Tools/DAVE IDE/4.5.0.202105191637/eclipse/workspace/XMC4300-app/Libraries/XMCLib/inc\xmc_fce.h ****  */
 372:D:/Infineon/Tools/DAVE IDE/4.5.0.202105191637/eclipse/workspace/XMC4300-app/Libraries/XMCLib/inc\xmc_fce.h **** __STATIC_INLINE void XMC_FCE_InitializeSeedValue(const XMC_FCE_t *const engine, uint32_t seedvalue)
 373:D:/Infineon/Tools/DAVE IDE/4.5.0.202105191637/eclipse/workspace/XMC4300-app/Libraries/XMCLib/inc\xmc_fce.h **** {
 374:D:/Infineon/Tools/DAVE IDE/4.5.0.202105191637/eclipse/workspace/XMC4300-app/Libraries/XMCLib/inc\xmc_fce.h ****   engine->kernel_ptr->CRC = seedvalue;
 375:D:/Infineon/Tools/DAVE IDE/4.5.0.202105191637/eclipse/workspace/XMC4300-app/Libraries/XMCLib/inc\xmc_fce.h **** }
 376:D:/Infineon/Tools/DAVE IDE/4.5.0.202105191637/eclipse/workspace/XMC4300-app/Libraries/XMCLib/inc\xmc_fce.h **** 
 377:D:/Infineon/Tools/DAVE IDE/4.5.0.202105191637/eclipse/workspace/XMC4300-app/Libraries/XMCLib/inc\xmc_fce.h **** /**
 378:D:/Infineon/Tools/DAVE IDE/4.5.0.202105191637/eclipse/workspace/XMC4300-app/Libraries/XMCLib/inc\xmc_fce.h ****  * @param engine Constant pointer to ::XMC_FCE_t, pointing to the FCE base address
 379:D:/Infineon/Tools/DAVE IDE/4.5.0.202105191637/eclipse/workspace/XMC4300-app/Libraries/XMCLib/inc\xmc_fce.h ****  * @param event OR'd values of ::XMC_FCE_CONFIG_INTERRUPT_t enumeration values
 380:D:/Infineon/Tools/DAVE IDE/4.5.0.202105191637/eclipse/workspace/XMC4300-app/Libraries/XMCLib/inc\xmc_fce.h ****  * @return None
 381:D:/Infineon/Tools/DAVE IDE/4.5.0.202105191637/eclipse/workspace/XMC4300-app/Libraries/XMCLib/inc\xmc_fce.h ****  *
 382:D:/Infineon/Tools/DAVE IDE/4.5.0.202105191637/eclipse/workspace/XMC4300-app/Libraries/XMCLib/inc\xmc_fce.h ****  * \par<b>Description: </b><br>
 383:D:/Infineon/Tools/DAVE IDE/4.5.0.202105191637/eclipse/workspace/XMC4300-app/Libraries/XMCLib/inc\xmc_fce.h ****  * Enable FCE event(s) <br>
 384:D:/Infineon/Tools/DAVE IDE/4.5.0.202105191637/eclipse/workspace/XMC4300-app/Libraries/XMCLib/inc\xmc_fce.h ****  *
 385:D:/Infineon/Tools/DAVE IDE/4.5.0.202105191637/eclipse/workspace/XMC4300-app/Libraries/XMCLib/inc\xmc_fce.h ****  * \par
 386:D:/Infineon/Tools/DAVE IDE/4.5.0.202105191637/eclipse/workspace/XMC4300-app/Libraries/XMCLib/inc\xmc_fce.h ****  * The function sets the CFG register to enable FCE event(s).
 387:D:/Infineon/Tools/DAVE IDE/4.5.0.202105191637/eclipse/workspace/XMC4300-app/Libraries/XMCLib/inc\xmc_fce.h ****  */
 388:D:/Infineon/Tools/DAVE IDE/4.5.0.202105191637/eclipse/workspace/XMC4300-app/Libraries/XMCLib/inc\xmc_fce.h **** __STATIC_INLINE void XMC_FCE_EnableEvent(const XMC_FCE_t *const engine, uint32_t event)
 389:D:/Infineon/Tools/DAVE IDE/4.5.0.202105191637/eclipse/workspace/XMC4300-app/Libraries/XMCLib/inc\xmc_fce.h **** {
 390:D:/Infineon/Tools/DAVE IDE/4.5.0.202105191637/eclipse/workspace/XMC4300-app/Libraries/XMCLib/inc\xmc_fce.h ****   engine->kernel_ptr->CFG |= (uint32_t)event;
 391:D:/Infineon/Tools/DAVE IDE/4.5.0.202105191637/eclipse/workspace/XMC4300-app/Libraries/XMCLib/inc\xmc_fce.h **** }
 392:D:/Infineon/Tools/DAVE IDE/4.5.0.202105191637/eclipse/workspace/XMC4300-app/Libraries/XMCLib/inc\xmc_fce.h **** 
 393:D:/Infineon/Tools/DAVE IDE/4.5.0.202105191637/eclipse/workspace/XMC4300-app/Libraries/XMCLib/inc\xmc_fce.h **** /**
 394:D:/Infineon/Tools/DAVE IDE/4.5.0.202105191637/eclipse/workspace/XMC4300-app/Libraries/XMCLib/inc\xmc_fce.h ****  * @param engine Constant pointer to ::XMC_FCE_t, pointing to the FCE base address
 395:D:/Infineon/Tools/DAVE IDE/4.5.0.202105191637/eclipse/workspace/XMC4300-app/Libraries/XMCLib/inc\xmc_fce.h ****  * @param event OR'd values of ::XMC_FCE_CONFIG_INTERRUPT_t enumeration values
 396:D:/Infineon/Tools/DAVE IDE/4.5.0.202105191637/eclipse/workspace/XMC4300-app/Libraries/XMCLib/inc\xmc_fce.h ****  * @return None
 397:D:/Infineon/Tools/DAVE IDE/4.5.0.202105191637/eclipse/workspace/XMC4300-app/Libraries/XMCLib/inc\xmc_fce.h ****  *
 398:D:/Infineon/Tools/DAVE IDE/4.5.0.202105191637/eclipse/workspace/XMC4300-app/Libraries/XMCLib/inc\xmc_fce.h ****  * \par<b>Description: </b><br>
 399:D:/Infineon/Tools/DAVE IDE/4.5.0.202105191637/eclipse/workspace/XMC4300-app/Libraries/XMCLib/inc\xmc_fce.h ****  * Disable FCE event(s) <br>
 400:D:/Infineon/Tools/DAVE IDE/4.5.0.202105191637/eclipse/workspace/XMC4300-app/Libraries/XMCLib/inc\xmc_fce.h ****  *
 401:D:/Infineon/Tools/DAVE IDE/4.5.0.202105191637/eclipse/workspace/XMC4300-app/Libraries/XMCLib/inc\xmc_fce.h ****  * \par
 402:D:/Infineon/Tools/DAVE IDE/4.5.0.202105191637/eclipse/workspace/XMC4300-app/Libraries/XMCLib/inc\xmc_fce.h ****  * The function clears the CFG register to disable FCE event(s).
 403:D:/Infineon/Tools/DAVE IDE/4.5.0.202105191637/eclipse/workspace/XMC4300-app/Libraries/XMCLib/inc\xmc_fce.h ****  */
 404:D:/Infineon/Tools/DAVE IDE/4.5.0.202105191637/eclipse/workspace/XMC4300-app/Libraries/XMCLib/inc\xmc_fce.h **** __STATIC_INLINE void XMC_FCE_DisableEvent(const XMC_FCE_t *const engine, uint32_t event)
 405:D:/Infineon/Tools/DAVE IDE/4.5.0.202105191637/eclipse/workspace/XMC4300-app/Libraries/XMCLib/inc\xmc_fce.h **** {
 406:D:/Infineon/Tools/DAVE IDE/4.5.0.202105191637/eclipse/workspace/XMC4300-app/Libraries/XMCLib/inc\xmc_fce.h ****   engine->kernel_ptr->CFG &= ~(uint32_t)event;
 407:D:/Infineon/Tools/DAVE IDE/4.5.0.202105191637/eclipse/workspace/XMC4300-app/Libraries/XMCLib/inc\xmc_fce.h **** }
 408:D:/Infineon/Tools/DAVE IDE/4.5.0.202105191637/eclipse/workspace/XMC4300-app/Libraries/XMCLib/inc\xmc_fce.h **** 
 409:D:/Infineon/Tools/DAVE IDE/4.5.0.202105191637/eclipse/workspace/XMC4300-app/Libraries/XMCLib/inc\xmc_fce.h **** /**
 410:D:/Infineon/Tools/DAVE IDE/4.5.0.202105191637/eclipse/workspace/XMC4300-app/Libraries/XMCLib/inc\xmc_fce.h ****  * @param engine Constant pointer to ::XMC_FCE_t, pointing to the FCE base address
 411:D:/Infineon/Tools/DAVE IDE/4.5.0.202105191637/eclipse/workspace/XMC4300-app/Libraries/XMCLib/inc\xmc_fce.h ****  * @param event Event of type ::XMC_FCE_STS_FLAG_t
 412:D:/Infineon/Tools/DAVE IDE/4.5.0.202105191637/eclipse/workspace/XMC4300-app/Libraries/XMCLib/inc\xmc_fce.h ****  * @return bool
 413:D:/Infineon/Tools/DAVE IDE/4.5.0.202105191637/eclipse/workspace/XMC4300-app/Libraries/XMCLib/inc\xmc_fce.h ****  *
 414:D:/Infineon/Tools/DAVE IDE/4.5.0.202105191637/eclipse/workspace/XMC4300-app/Libraries/XMCLib/inc\xmc_fce.h ****  * \par<b>Description: </b><br>
 415:D:/Infineon/Tools/DAVE IDE/4.5.0.202105191637/eclipse/workspace/XMC4300-app/Libraries/XMCLib/inc\xmc_fce.h ****  * Return the event status of FCE event <br>
 416:D:/Infineon/Tools/DAVE IDE/4.5.0.202105191637/eclipse/workspace/XMC4300-app/Libraries/XMCLib/inc\xmc_fce.h ****  *
 417:D:/Infineon/Tools/DAVE IDE/4.5.0.202105191637/eclipse/workspace/XMC4300-app/Libraries/XMCLib/inc\xmc_fce.h ****  * \par
 418:D:/Infineon/Tools/DAVE IDE/4.5.0.202105191637/eclipse/workspace/XMC4300-app/Libraries/XMCLib/inc\xmc_fce.h ****  * The function returns the status of a single requested FCE event by reading the
 419:D:/Infineon/Tools/DAVE IDE/4.5.0.202105191637/eclipse/workspace/XMC4300-app/Libraries/XMCLib/inc\xmc_fce.h ****  * appropriate bit-fields of the STS register.
 420:D:/Infineon/Tools/DAVE IDE/4.5.0.202105191637/eclipse/workspace/XMC4300-app/Libraries/XMCLib/inc\xmc_fce.h ****  */
 421:D:/Infineon/Tools/DAVE IDE/4.5.0.202105191637/eclipse/workspace/XMC4300-app/Libraries/XMCLib/inc\xmc_fce.h **** __STATIC_INLINE bool XMC_FCE_GetEventStatus(const XMC_FCE_t *const engine, XMC_FCE_STS_FLAG_t event
 422:D:/Infineon/Tools/DAVE IDE/4.5.0.202105191637/eclipse/workspace/XMC4300-app/Libraries/XMCLib/inc\xmc_fce.h **** {
 423:D:/Infineon/Tools/DAVE IDE/4.5.0.202105191637/eclipse/workspace/XMC4300-app/Libraries/XMCLib/inc\xmc_fce.h ****   return (bool) (engine->kernel_ptr->STS & (uint32_t)event);
 424:D:/Infineon/Tools/DAVE IDE/4.5.0.202105191637/eclipse/workspace/XMC4300-app/Libraries/XMCLib/inc\xmc_fce.h **** }
 425:D:/Infineon/Tools/DAVE IDE/4.5.0.202105191637/eclipse/workspace/XMC4300-app/Libraries/XMCLib/inc\xmc_fce.h **** 
 426:D:/Infineon/Tools/DAVE IDE/4.5.0.202105191637/eclipse/workspace/XMC4300-app/Libraries/XMCLib/inc\xmc_fce.h **** /**
 427:D:/Infineon/Tools/DAVE IDE/4.5.0.202105191637/eclipse/workspace/XMC4300-app/Libraries/XMCLib/inc\xmc_fce.h ****  * @param engine Constant pointer to ::XMC_FCE_t, pointing to the FCE base address
 428:D:/Infineon/Tools/DAVE IDE/4.5.0.202105191637/eclipse/workspace/XMC4300-app/Libraries/XMCLib/inc\xmc_fce.h ****  * @param event Event of type ::XMC_FCE_STS_FLAG_t
 429:D:/Infineon/Tools/DAVE IDE/4.5.0.202105191637/eclipse/workspace/XMC4300-app/Libraries/XMCLib/inc\xmc_fce.h ****  * @return None
 430:D:/Infineon/Tools/DAVE IDE/4.5.0.202105191637/eclipse/workspace/XMC4300-app/Libraries/XMCLib/inc\xmc_fce.h ****  *
 431:D:/Infineon/Tools/DAVE IDE/4.5.0.202105191637/eclipse/workspace/XMC4300-app/Libraries/XMCLib/inc\xmc_fce.h ****  * \par<b>Description: </b><br>
 432:D:/Infineon/Tools/DAVE IDE/4.5.0.202105191637/eclipse/workspace/XMC4300-app/Libraries/XMCLib/inc\xmc_fce.h ****  * Clear an FCE event <br>
 433:D:/Infineon/Tools/DAVE IDE/4.5.0.202105191637/eclipse/workspace/XMC4300-app/Libraries/XMCLib/inc\xmc_fce.h ****  *
 434:D:/Infineon/Tools/DAVE IDE/4.5.0.202105191637/eclipse/workspace/XMC4300-app/Libraries/XMCLib/inc\xmc_fce.h ****  * \par
 435:D:/Infineon/Tools/DAVE IDE/4.5.0.202105191637/eclipse/workspace/XMC4300-app/Libraries/XMCLib/inc\xmc_fce.h ****  * The function clears requested FCE events by setting the bit-fields of the STS
 436:D:/Infineon/Tools/DAVE IDE/4.5.0.202105191637/eclipse/workspace/XMC4300-app/Libraries/XMCLib/inc\xmc_fce.h ****  * register.
 437:D:/Infineon/Tools/DAVE IDE/4.5.0.202105191637/eclipse/workspace/XMC4300-app/Libraries/XMCLib/inc\xmc_fce.h ****  */
 438:D:/Infineon/Tools/DAVE IDE/4.5.0.202105191637/eclipse/workspace/XMC4300-app/Libraries/XMCLib/inc\xmc_fce.h **** __STATIC_INLINE void XMC_FCE_ClearEvent(const XMC_FCE_t *const engine, XMC_FCE_STS_FLAG_t event)
 439:D:/Infineon/Tools/DAVE IDE/4.5.0.202105191637/eclipse/workspace/XMC4300-app/Libraries/XMCLib/inc\xmc_fce.h **** {
 440:D:/Infineon/Tools/DAVE IDE/4.5.0.202105191637/eclipse/workspace/XMC4300-app/Libraries/XMCLib/inc\xmc_fce.h ****   engine->kernel_ptr->STS |= (uint32_t)event;
 441:D:/Infineon/Tools/DAVE IDE/4.5.0.202105191637/eclipse/workspace/XMC4300-app/Libraries/XMCLib/inc\xmc_fce.h **** }
 442:D:/Infineon/Tools/DAVE IDE/4.5.0.202105191637/eclipse/workspace/XMC4300-app/Libraries/XMCLib/inc\xmc_fce.h **** 
 443:D:/Infineon/Tools/DAVE IDE/4.5.0.202105191637/eclipse/workspace/XMC4300-app/Libraries/XMCLib/inc\xmc_fce.h **** /**
 444:D:/Infineon/Tools/DAVE IDE/4.5.0.202105191637/eclipse/workspace/XMC4300-app/Libraries/XMCLib/inc\xmc_fce.h ****  * @param engine Constant pointer to ::XMC_FCE_t, pointing to the FCE base address
 445:D:/Infineon/Tools/DAVE IDE/4.5.0.202105191637/eclipse/workspace/XMC4300-app/Libraries/XMCLib/inc\xmc_fce.h ****  * @param operation FCE operation of type ::XMC_FCE_CONFIG_OPERATION_t
 446:D:/Infineon/Tools/DAVE IDE/4.5.0.202105191637/eclipse/workspace/XMC4300-app/Libraries/XMCLib/inc\xmc_fce.h ****  * @return None
 447:D:/Infineon/Tools/DAVE IDE/4.5.0.202105191637/eclipse/workspace/XMC4300-app/Libraries/XMCLib/inc\xmc_fce.h ****  *
 448:D:/Infineon/Tools/DAVE IDE/4.5.0.202105191637/eclipse/workspace/XMC4300-app/Libraries/XMCLib/inc\xmc_fce.h ****  * \par<b>Description: </b><br>
 449:D:/Infineon/Tools/DAVE IDE/4.5.0.202105191637/eclipse/workspace/XMC4300-app/Libraries/XMCLib/inc\xmc_fce.h ****  * Enable CRC operations <br>
 450:D:/Infineon/Tools/DAVE IDE/4.5.0.202105191637/eclipse/workspace/XMC4300-app/Libraries/XMCLib/inc\xmc_fce.h ****  *
 451:D:/Infineon/Tools/DAVE IDE/4.5.0.202105191637/eclipse/workspace/XMC4300-app/Libraries/XMCLib/inc\xmc_fce.h ****  * \par
 452:D:/Infineon/Tools/DAVE IDE/4.5.0.202105191637/eclipse/workspace/XMC4300-app/Libraries/XMCLib/inc\xmc_fce.h ****  * The function enables FRC operations by writing to the CFG register.
 453:D:/Infineon/Tools/DAVE IDE/4.5.0.202105191637/eclipse/workspace/XMC4300-app/Libraries/XMCLib/inc\xmc_fce.h ****  *
 454:D:/Infineon/Tools/DAVE IDE/4.5.0.202105191637/eclipse/workspace/XMC4300-app/Libraries/XMCLib/inc\xmc_fce.h ****  * \par<b>Note: </b><br>
 455:D:/Infineon/Tools/DAVE IDE/4.5.0.202105191637/eclipse/workspace/XMC4300-app/Libraries/XMCLib/inc\xmc_fce.h ****  * CRC comparison check (at the end of message) can be enabled using the CCE bit-field.
 456:D:/Infineon/Tools/DAVE IDE/4.5.0.202105191637/eclipse/workspace/XMC4300-app/Libraries/XMCLib/inc\xmc_fce.h ****  * Automatic reload of LENGTH field (at the end of message) can be enabled using the
 457:D:/Infineon/Tools/DAVE IDE/4.5.0.202105191637/eclipse/workspace/XMC4300-app/Libraries/XMCLib/inc\xmc_fce.h ****  * ALR bit field.
 458:D:/Infineon/Tools/DAVE IDE/4.5.0.202105191637/eclipse/workspace/XMC4300-app/Libraries/XMCLib/inc\xmc_fce.h ****  */
 459:D:/Infineon/Tools/DAVE IDE/4.5.0.202105191637/eclipse/workspace/XMC4300-app/Libraries/XMCLib/inc\xmc_fce.h **** __STATIC_INLINE void XMC_FCE_EnableOperation(const XMC_FCE_t *const engine, uint32_t operation)
 460:D:/Infineon/Tools/DAVE IDE/4.5.0.202105191637/eclipse/workspace/XMC4300-app/Libraries/XMCLib/inc\xmc_fce.h **** {
 461:D:/Infineon/Tools/DAVE IDE/4.5.0.202105191637/eclipse/workspace/XMC4300-app/Libraries/XMCLib/inc\xmc_fce.h ****   engine->kernel_ptr->CFG |= operation;
 462:D:/Infineon/Tools/DAVE IDE/4.5.0.202105191637/eclipse/workspace/XMC4300-app/Libraries/XMCLib/inc\xmc_fce.h **** }
 463:D:/Infineon/Tools/DAVE IDE/4.5.0.202105191637/eclipse/workspace/XMC4300-app/Libraries/XMCLib/inc\xmc_fce.h **** 
 464:D:/Infineon/Tools/DAVE IDE/4.5.0.202105191637/eclipse/workspace/XMC4300-app/Libraries/XMCLib/inc\xmc_fce.h **** /**
 465:D:/Infineon/Tools/DAVE IDE/4.5.0.202105191637/eclipse/workspace/XMC4300-app/Libraries/XMCLib/inc\xmc_fce.h ****  * @param engine Constant pointer to ::XMC_FCE_t, pointing to the FCE base address
 466:D:/Infineon/Tools/DAVE IDE/4.5.0.202105191637/eclipse/workspace/XMC4300-app/Libraries/XMCLib/inc\xmc_fce.h ****  * @param operation FCE operation of type ::XMC_FCE_CONFIG_OPERATION_t
 467:D:/Infineon/Tools/DAVE IDE/4.5.0.202105191637/eclipse/workspace/XMC4300-app/Libraries/XMCLib/inc\xmc_fce.h ****  * @return None
 468:D:/Infineon/Tools/DAVE IDE/4.5.0.202105191637/eclipse/workspace/XMC4300-app/Libraries/XMCLib/inc\xmc_fce.h ****  *
 469:D:/Infineon/Tools/DAVE IDE/4.5.0.202105191637/eclipse/workspace/XMC4300-app/Libraries/XMCLib/inc\xmc_fce.h ****  * \par<b>Description: </b><br>
 470:D:/Infineon/Tools/DAVE IDE/4.5.0.202105191637/eclipse/workspace/XMC4300-app/Libraries/XMCLib/inc\xmc_fce.h ****  * Disable CRC operations <br>
 471:D:/Infineon/Tools/DAVE IDE/4.5.0.202105191637/eclipse/workspace/XMC4300-app/Libraries/XMCLib/inc\xmc_fce.h ****  *
 472:D:/Infineon/Tools/DAVE IDE/4.5.0.202105191637/eclipse/workspace/XMC4300-app/Libraries/XMCLib/inc\xmc_fce.h ****  * \par
 473:D:/Infineon/Tools/DAVE IDE/4.5.0.202105191637/eclipse/workspace/XMC4300-app/Libraries/XMCLib/inc\xmc_fce.h ****  * The function disables FRC operations by writing to the CFG register.
 474:D:/Infineon/Tools/DAVE IDE/4.5.0.202105191637/eclipse/workspace/XMC4300-app/Libraries/XMCLib/inc\xmc_fce.h ****  *
 475:D:/Infineon/Tools/DAVE IDE/4.5.0.202105191637/eclipse/workspace/XMC4300-app/Libraries/XMCLib/inc\xmc_fce.h ****  * \par<b>Note: </b><br>
 476:D:/Infineon/Tools/DAVE IDE/4.5.0.202105191637/eclipse/workspace/XMC4300-app/Libraries/XMCLib/inc\xmc_fce.h ****  * CRC comparison check (at the end of message) can be disabled using the CCE bit-field.
 477:D:/Infineon/Tools/DAVE IDE/4.5.0.202105191637/eclipse/workspace/XMC4300-app/Libraries/XMCLib/inc\xmc_fce.h ****  * Automatic reload of LENGTH field (at the end of message) can be disabled using the
 478:D:/Infineon/Tools/DAVE IDE/4.5.0.202105191637/eclipse/workspace/XMC4300-app/Libraries/XMCLib/inc\xmc_fce.h ****  * ALR bit field.
 479:D:/Infineon/Tools/DAVE IDE/4.5.0.202105191637/eclipse/workspace/XMC4300-app/Libraries/XMCLib/inc\xmc_fce.h ****  */
 480:D:/Infineon/Tools/DAVE IDE/4.5.0.202105191637/eclipse/workspace/XMC4300-app/Libraries/XMCLib/inc\xmc_fce.h **** __STATIC_INLINE void XMC_FCE_DisableOperation(const XMC_FCE_t *const engine, uint32_t operation)
 481:D:/Infineon/Tools/DAVE IDE/4.5.0.202105191637/eclipse/workspace/XMC4300-app/Libraries/XMCLib/inc\xmc_fce.h **** {
 482:D:/Infineon/Tools/DAVE IDE/4.5.0.202105191637/eclipse/workspace/XMC4300-app/Libraries/XMCLib/inc\xmc_fce.h ****   engine->kernel_ptr->CFG &= ~(uint32_t)operation;
 483:D:/Infineon/Tools/DAVE IDE/4.5.0.202105191637/eclipse/workspace/XMC4300-app/Libraries/XMCLib/inc\xmc_fce.h **** }
 484:D:/Infineon/Tools/DAVE IDE/4.5.0.202105191637/eclipse/workspace/XMC4300-app/Libraries/XMCLib/inc\xmc_fce.h **** 
 485:D:/Infineon/Tools/DAVE IDE/4.5.0.202105191637/eclipse/workspace/XMC4300-app/Libraries/XMCLib/inc\xmc_fce.h **** /**
 486:D:/Infineon/Tools/DAVE IDE/4.5.0.202105191637/eclipse/workspace/XMC4300-app/Libraries/XMCLib/inc\xmc_fce.h ****  * @param engine Constant pointer to ::XMC_FCE_t, pointing to the FCE base address
 487:D:/Infineon/Tools/DAVE IDE/4.5.0.202105191637/eclipse/workspace/XMC4300-app/Libraries/XMCLib/inc\xmc_fce.h ****  * @param algo A valid algorithm of type ::XMC_FCE_CONFIG_ALGO_t or a valid combination
 488:D:/Infineon/Tools/DAVE IDE/4.5.0.202105191637/eclipse/workspace/XMC4300-app/Libraries/XMCLib/inc\xmc_fce.h ****  *             of logically OR'd algorithms
 489:D:/Infineon/Tools/DAVE IDE/4.5.0.202105191637/eclipse/workspace/XMC4300-app/Libraries/XMCLib/inc\xmc_fce.h ****  * @return None
 490:D:/Infineon/Tools/DAVE IDE/4.5.0.202105191637/eclipse/workspace/XMC4300-app/Libraries/XMCLib/inc\xmc_fce.h ****  *
 491:D:/Infineon/Tools/DAVE IDE/4.5.0.202105191637/eclipse/workspace/XMC4300-app/Libraries/XMCLib/inc\xmc_fce.h ****  * \par<b>Description: </b><br>
 492:D:/Infineon/Tools/DAVE IDE/4.5.0.202105191637/eclipse/workspace/XMC4300-app/Libraries/XMCLib/inc\xmc_fce.h ****  * Enables CRC algorithm(s) <br>
 493:D:/Infineon/Tools/DAVE IDE/4.5.0.202105191637/eclipse/workspace/XMC4300-app/Libraries/XMCLib/inc\xmc_fce.h ****  *
 494:D:/Infineon/Tools/DAVE IDE/4.5.0.202105191637/eclipse/workspace/XMC4300-app/Libraries/XMCLib/inc\xmc_fce.h ****  * \par<b>Note: </b><br>
 495:D:/Infineon/Tools/DAVE IDE/4.5.0.202105191637/eclipse/workspace/XMC4300-app/Libraries/XMCLib/inc\xmc_fce.h ****  * Options for enabling CRC algorithm:    <br>
 496:D:/Infineon/Tools/DAVE IDE/4.5.0.202105191637/eclipse/workspace/XMC4300-app/Libraries/XMCLib/inc\xmc_fce.h ****  * REFIN: Input byte wise reflection      <br>
 497:D:/Infineon/Tools/DAVE IDE/4.5.0.202105191637/eclipse/workspace/XMC4300-app/Libraries/XMCLib/inc\xmc_fce.h ****  * REFOUT: Output bit wise reflection     <br>
 498:D:/Infineon/Tools/DAVE IDE/4.5.0.202105191637/eclipse/workspace/XMC4300-app/Libraries/XMCLib/inc\xmc_fce.h ****  * XSEL: Value to be XORed with final CRC <br>
 499:D:/Infineon/Tools/DAVE IDE/4.5.0.202105191637/eclipse/workspace/XMC4300-app/Libraries/XMCLib/inc\xmc_fce.h ****  */
 500:D:/Infineon/Tools/DAVE IDE/4.5.0.202105191637/eclipse/workspace/XMC4300-app/Libraries/XMCLib/inc\xmc_fce.h **** __STATIC_INLINE void XMC_FCE_EnableCRCAlgorithm(const XMC_FCE_t *const engine, uint32_t algo)
 501:D:/Infineon/Tools/DAVE IDE/4.5.0.202105191637/eclipse/workspace/XMC4300-app/Libraries/XMCLib/inc\xmc_fce.h **** {
 502:D:/Infineon/Tools/DAVE IDE/4.5.0.202105191637/eclipse/workspace/XMC4300-app/Libraries/XMCLib/inc\xmc_fce.h ****   engine->kernel_ptr->CFG |= (uint32_t)algo;
 503:D:/Infineon/Tools/DAVE IDE/4.5.0.202105191637/eclipse/workspace/XMC4300-app/Libraries/XMCLib/inc\xmc_fce.h **** }
 504:D:/Infineon/Tools/DAVE IDE/4.5.0.202105191637/eclipse/workspace/XMC4300-app/Libraries/XMCLib/inc\xmc_fce.h **** 
 505:D:/Infineon/Tools/DAVE IDE/4.5.0.202105191637/eclipse/workspace/XMC4300-app/Libraries/XMCLib/inc\xmc_fce.h **** /**
 506:D:/Infineon/Tools/DAVE IDE/4.5.0.202105191637/eclipse/workspace/XMC4300-app/Libraries/XMCLib/inc\xmc_fce.h ****  * @param engine Constant pointer to ::XMC_FCE_t, pointing to the FCE base address
 507:D:/Infineon/Tools/DAVE IDE/4.5.0.202105191637/eclipse/workspace/XMC4300-app/Libraries/XMCLib/inc\xmc_fce.h ****  * @param algo A valid algorithm of type ::XMC_FCE_CONFIG_ALGO_t or a valid combination
 508:D:/Infineon/Tools/DAVE IDE/4.5.0.202105191637/eclipse/workspace/XMC4300-app/Libraries/XMCLib/inc\xmc_fce.h ****  *             of logically OR'd algorithms
 509:D:/Infineon/Tools/DAVE IDE/4.5.0.202105191637/eclipse/workspace/XMC4300-app/Libraries/XMCLib/inc\xmc_fce.h ****  * @return None
 510:D:/Infineon/Tools/DAVE IDE/4.5.0.202105191637/eclipse/workspace/XMC4300-app/Libraries/XMCLib/inc\xmc_fce.h ****  *
 511:D:/Infineon/Tools/DAVE IDE/4.5.0.202105191637/eclipse/workspace/XMC4300-app/Libraries/XMCLib/inc\xmc_fce.h ****  * \par<b>Description: </b><br>
 512:D:/Infineon/Tools/DAVE IDE/4.5.0.202105191637/eclipse/workspace/XMC4300-app/Libraries/XMCLib/inc\xmc_fce.h ****  * Disable CRC algorithm(s) <br>
 513:D:/Infineon/Tools/DAVE IDE/4.5.0.202105191637/eclipse/workspace/XMC4300-app/Libraries/XMCLib/inc\xmc_fce.h ****  *
 514:D:/Infineon/Tools/DAVE IDE/4.5.0.202105191637/eclipse/workspace/XMC4300-app/Libraries/XMCLib/inc\xmc_fce.h ****  * \par<b>Note: </b><br>
 515:D:/Infineon/Tools/DAVE IDE/4.5.0.202105191637/eclipse/workspace/XMC4300-app/Libraries/XMCLib/inc\xmc_fce.h ****  * Options for disabling CRC algorithm:   <br>
 516:D:/Infineon/Tools/DAVE IDE/4.5.0.202105191637/eclipse/workspace/XMC4300-app/Libraries/XMCLib/inc\xmc_fce.h ****  * REFIN: Input byte wise reflection      <br>
 517:D:/Infineon/Tools/DAVE IDE/4.5.0.202105191637/eclipse/workspace/XMC4300-app/Libraries/XMCLib/inc\xmc_fce.h ****  * REFOUT: Output bit wise reflection     <br>
 518:D:/Infineon/Tools/DAVE IDE/4.5.0.202105191637/eclipse/workspace/XMC4300-app/Libraries/XMCLib/inc\xmc_fce.h ****  * XSEL: Value to be XORed with final CRC <br>
 519:D:/Infineon/Tools/DAVE IDE/4.5.0.202105191637/eclipse/workspace/XMC4300-app/Libraries/XMCLib/inc\xmc_fce.h ****  */
 520:D:/Infineon/Tools/DAVE IDE/4.5.0.202105191637/eclipse/workspace/XMC4300-app/Libraries/XMCLib/inc\xmc_fce.h **** __STATIC_INLINE void XMC_FCE_DisableCRCAlgorithm(const XMC_FCE_t *const engine, uint32_t algo)
 521:D:/Infineon/Tools/DAVE IDE/4.5.0.202105191637/eclipse/workspace/XMC4300-app/Libraries/XMCLib/inc\xmc_fce.h **** {
 522:D:/Infineon/Tools/DAVE IDE/4.5.0.202105191637/eclipse/workspace/XMC4300-app/Libraries/XMCLib/inc\xmc_fce.h ****   engine->kernel_ptr->CFG &= ~(uint32_t)algo;
 523:D:/Infineon/Tools/DAVE IDE/4.5.0.202105191637/eclipse/workspace/XMC4300-app/Libraries/XMCLib/inc\xmc_fce.h **** }
 524:D:/Infineon/Tools/DAVE IDE/4.5.0.202105191637/eclipse/workspace/XMC4300-app/Libraries/XMCLib/inc\xmc_fce.h **** 
 525:D:/Infineon/Tools/DAVE IDE/4.5.0.202105191637/eclipse/workspace/XMC4300-app/Libraries/XMCLib/inc\xmc_fce.h **** /**
 526:D:/Infineon/Tools/DAVE IDE/4.5.0.202105191637/eclipse/workspace/XMC4300-app/Libraries/XMCLib/inc\xmc_fce.h ****  * @param engine Constant pointer to ::XMC_FCE_t, pointing to the FCE base address
 527:D:/Infineon/Tools/DAVE IDE/4.5.0.202105191637/eclipse/workspace/XMC4300-app/Libraries/XMCLib/inc\xmc_fce.h ****  * @param checkvalue Checksum value
 528:D:/Infineon/Tools/DAVE IDE/4.5.0.202105191637/eclipse/workspace/XMC4300-app/Libraries/XMCLib/inc\xmc_fce.h ****  * @return None
 529:D:/Infineon/Tools/DAVE IDE/4.5.0.202105191637/eclipse/workspace/XMC4300-app/Libraries/XMCLib/inc\xmc_fce.h ****  *
 530:D:/Infineon/Tools/DAVE IDE/4.5.0.202105191637/eclipse/workspace/XMC4300-app/Libraries/XMCLib/inc\xmc_fce.h ****  * \par<b>Description: </b><br>
 531:D:/Infineon/Tools/DAVE IDE/4.5.0.202105191637/eclipse/workspace/XMC4300-app/Libraries/XMCLib/inc\xmc_fce.h ****  * Updates CRC check value <br>
 532:D:/Infineon/Tools/DAVE IDE/4.5.0.202105191637/eclipse/workspace/XMC4300-app/Libraries/XMCLib/inc\xmc_fce.h ****  *
 533:D:/Infineon/Tools/DAVE IDE/4.5.0.202105191637/eclipse/workspace/XMC4300-app/Libraries/XMCLib/inc\xmc_fce.h ****  * \par
 534:D:/Infineon/Tools/DAVE IDE/4.5.0.202105191637/eclipse/workspace/XMC4300-app/Libraries/XMCLib/inc\xmc_fce.h ****  * When the CFG.CCE bit field is set, every time the IR register is written, the
 535:D:/Infineon/Tools/DAVE IDE/4.5.0.202105191637/eclipse/workspace/XMC4300-app/Libraries/XMCLib/inc\xmc_fce.h ****  * LENGTH register is decremented by one until it reaches zero. The hardware monitors
 536:D:/Infineon/Tools/DAVE IDE/4.5.0.202105191637/eclipse/workspace/XMC4300-app/Libraries/XMCLib/inc\xmc_fce.h ****  * the transition of the LENGTH register from 1 to 0 to detect the end of the
 537:D:/Infineon/Tools/DAVE IDE/4.5.0.202105191637/eclipse/workspace/XMC4300-app/Libraries/XMCLib/inc\xmc_fce.h ****  * message and proceed with the comparison of the result register (RES) value with
 538:D:/Infineon/Tools/DAVE IDE/4.5.0.202105191637/eclipse/workspace/XMC4300-app/Libraries/XMCLib/inc\xmc_fce.h ****  * the CHECK register value.
 539:D:/Infineon/Tools/DAVE IDE/4.5.0.202105191637/eclipse/workspace/XMC4300-app/Libraries/XMCLib/inc\xmc_fce.h ****  */
 540:D:/Infineon/Tools/DAVE IDE/4.5.0.202105191637/eclipse/workspace/XMC4300-app/Libraries/XMCLib/inc\xmc_fce.h **** __STATIC_INLINE void XMC_FCE_UpdateCRCCheck(const XMC_FCE_t *const engine, const uint32_t checkvalu
 541:D:/Infineon/Tools/DAVE IDE/4.5.0.202105191637/eclipse/workspace/XMC4300-app/Libraries/XMCLib/inc\xmc_fce.h **** {
 542:D:/Infineon/Tools/DAVE IDE/4.5.0.202105191637/eclipse/workspace/XMC4300-app/Libraries/XMCLib/inc\xmc_fce.h ****   engine->kernel_ptr->CHECK = 0xFACECAFEU;
 543:D:/Infineon/Tools/DAVE IDE/4.5.0.202105191637/eclipse/workspace/XMC4300-app/Libraries/XMCLib/inc\xmc_fce.h ****   engine->kernel_ptr->CHECK = checkvalue;
 544:D:/Infineon/Tools/DAVE IDE/4.5.0.202105191637/eclipse/workspace/XMC4300-app/Libraries/XMCLib/inc\xmc_fce.h **** }
 545:D:/Infineon/Tools/DAVE IDE/4.5.0.202105191637/eclipse/workspace/XMC4300-app/Libraries/XMCLib/inc\xmc_fce.h **** 
 546:D:/Infineon/Tools/DAVE IDE/4.5.0.202105191637/eclipse/workspace/XMC4300-app/Libraries/XMCLib/inc\xmc_fce.h **** /**
 547:D:/Infineon/Tools/DAVE IDE/4.5.0.202105191637/eclipse/workspace/XMC4300-app/Libraries/XMCLib/inc\xmc_fce.h ****  * @param engine Constant pointer to ::XMC_FCE_t, pointing to the FCE base address
 548:D:/Infineon/Tools/DAVE IDE/4.5.0.202105191637/eclipse/workspace/XMC4300-app/Libraries/XMCLib/inc\xmc_fce.h ****  * @param checklength Checksum length
 549:D:/Infineon/Tools/DAVE IDE/4.5.0.202105191637/eclipse/workspace/XMC4300-app/Libraries/XMCLib/inc\xmc_fce.h ****  * @return None <br>
 550:D:/Infineon/Tools/DAVE IDE/4.5.0.202105191637/eclipse/workspace/XMC4300-app/Libraries/XMCLib/inc\xmc_fce.h ****  *
 551:D:/Infineon/Tools/DAVE IDE/4.5.0.202105191637/eclipse/workspace/XMC4300-app/Libraries/XMCLib/inc\xmc_fce.h ****  * \par<b>Description: </b><br>
 552:D:/Infineon/Tools/DAVE IDE/4.5.0.202105191637/eclipse/workspace/XMC4300-app/Libraries/XMCLib/inc\xmc_fce.h ****  * Updates CRC length specified in the input parameter <br>
 553:D:/Infineon/Tools/DAVE IDE/4.5.0.202105191637/eclipse/workspace/XMC4300-app/Libraries/XMCLib/inc\xmc_fce.h ****  *
 554:D:/Infineon/Tools/DAVE IDE/4.5.0.202105191637/eclipse/workspace/XMC4300-app/Libraries/XMCLib/inc\xmc_fce.h ****  * \par
 555:D:/Infineon/Tools/DAVE IDE/4.5.0.202105191637/eclipse/workspace/XMC4300-app/Libraries/XMCLib/inc\xmc_fce.h ****  * When the ALR bit field is set to 1, every write to the IR register decrements
 556:D:/Infineon/Tools/DAVE IDE/4.5.0.202105191637/eclipse/workspace/XMC4300-app/Libraries/XMCLib/inc\xmc_fce.h ****  * the value of the LENGTH bit field. The LENGTH field shall be reloaded with its
 557:D:/Infineon/Tools/DAVE IDE/4.5.0.202105191637/eclipse/workspace/XMC4300-app/Libraries/XMCLib/inc\xmc_fce.h ****  * configuration value at the end of the cycle where LENGTH reaches 0.
 558:D:/Infineon/Tools/DAVE IDE/4.5.0.202105191637/eclipse/workspace/XMC4300-app/Libraries/XMCLib/inc\xmc_fce.h ****  */
 559:D:/Infineon/Tools/DAVE IDE/4.5.0.202105191637/eclipse/workspace/XMC4300-app/Libraries/XMCLib/inc\xmc_fce.h **** __STATIC_INLINE void XMC_FCE_UpdateLength(const XMC_FCE_t *const engine, const uint32_t checklength
 560:D:/Infineon/Tools/DAVE IDE/4.5.0.202105191637/eclipse/workspace/XMC4300-app/Libraries/XMCLib/inc\xmc_fce.h **** {
 561:D:/Infineon/Tools/DAVE IDE/4.5.0.202105191637/eclipse/workspace/XMC4300-app/Libraries/XMCLib/inc\xmc_fce.h ****   engine->kernel_ptr->LENGTH = 0xFACECAFEU;
 562:D:/Infineon/Tools/DAVE IDE/4.5.0.202105191637/eclipse/workspace/XMC4300-app/Libraries/XMCLib/inc\xmc_fce.h ****   engine->kernel_ptr->LENGTH = checklength;
 563:D:/Infineon/Tools/DAVE IDE/4.5.0.202105191637/eclipse/workspace/XMC4300-app/Libraries/XMCLib/inc\xmc_fce.h **** }
 564:D:/Infineon/Tools/DAVE IDE/4.5.0.202105191637/eclipse/workspace/XMC4300-app/Libraries/XMCLib/inc\xmc_fce.h **** 
 565:D:/Infineon/Tools/DAVE IDE/4.5.0.202105191637/eclipse/workspace/XMC4300-app/Libraries/XMCLib/inc\xmc_fce.h **** /**
 566:D:/Infineon/Tools/DAVE IDE/4.5.0.202105191637/eclipse/workspace/XMC4300-app/Libraries/XMCLib/inc\xmc_fce.h ****  * @param engine Constant pointer to @ref XMC_FCE_t, pointing to the FCE base address
 567:D:/Infineon/Tools/DAVE IDE/4.5.0.202105191637/eclipse/workspace/XMC4300-app/Libraries/XMCLib/inc\xmc_fce.h ****  * @param data Pointer to the data buffer
 568:D:/Infineon/Tools/DAVE IDE/4.5.0.202105191637/eclipse/workspace/XMC4300-app/Libraries/XMCLib/inc\xmc_fce.h ****  * @param length Total number of bytes of data buffer
 569:D:/Infineon/Tools/DAVE IDE/4.5.0.202105191637/eclipse/workspace/XMC4300-app/Libraries/XMCLib/inc\xmc_fce.h ****  * @param result Pointer to computed CRC result
 570:D:/Infineon/Tools/DAVE IDE/4.5.0.202105191637/eclipse/workspace/XMC4300-app/Libraries/XMCLib/inc\xmc_fce.h ****  * @return XMC_FCE_STATUS_ERROR on error
 571:D:/Infineon/Tools/DAVE IDE/4.5.0.202105191637/eclipse/workspace/XMC4300-app/Libraries/XMCLib/inc\xmc_fce.h ****  * @return XMC_FCE_STATUS_SUCCESS otherwise.
 572:D:/Infineon/Tools/DAVE IDE/4.5.0.202105191637/eclipse/workspace/XMC4300-app/Libraries/XMCLib/inc\xmc_fce.h ****  *
 573:D:/Infineon/Tools/DAVE IDE/4.5.0.202105191637/eclipse/workspace/XMC4300-app/Libraries/XMCLib/inc\xmc_fce.h ****  * \par<b>Description: </b><br>
 574:D:/Infineon/Tools/DAVE IDE/4.5.0.202105191637/eclipse/workspace/XMC4300-app/Libraries/XMCLib/inc\xmc_fce.h ****  * Calculate and updates the CRC8 checksum in the result pointer <br>
 575:D:/Infineon/Tools/DAVE IDE/4.5.0.202105191637/eclipse/workspace/XMC4300-app/Libraries/XMCLib/inc\xmc_fce.h ****  *
 576:D:/Infineon/Tools/DAVE IDE/4.5.0.202105191637/eclipse/workspace/XMC4300-app/Libraries/XMCLib/inc\xmc_fce.h ****  * \par<b>Note: </b><br>
 577:D:/Infineon/Tools/DAVE IDE/4.5.0.202105191637/eclipse/workspace/XMC4300-app/Libraries/XMCLib/inc\xmc_fce.h ****  * A write to IRm (m = 3) triggers the CRC kernel to update the message checksum
 578:D:/Infineon/Tools/DAVE IDE/4.5.0.202105191637/eclipse/workspace/XMC4300-app/Libraries/XMCLib/inc\xmc_fce.h ****  * according to the IR and current CRC register contents. Any write transaction
 579:D:/Infineon/Tools/DAVE IDE/4.5.0.202105191637/eclipse/workspace/XMC4300-app/Libraries/XMCLib/inc\xmc_fce.h ****  * is allowed to this IRm register. Only the lower 8-bit of the write transactions
 580:D:/Infineon/Tools/DAVE IDE/4.5.0.202105191637/eclipse/workspace/XMC4300-app/Libraries/XMCLib/inc\xmc_fce.h ****  * will be used. ::XMC_FCE_GetCRCResult() should be called after invoking
 581:D:/Infineon/Tools/DAVE IDE/4.5.0.202105191637/eclipse/workspace/XMC4300-app/Libraries/XMCLib/inc\xmc_fce.h ****  * ::XMC_FCE_CalculateCRC8() to get final CRC value.
 582:D:/Infineon/Tools/DAVE IDE/4.5.0.202105191637/eclipse/workspace/XMC4300-app/Libraries/XMCLib/inc\xmc_fce.h ****  */
 583:D:/Infineon/Tools/DAVE IDE/4.5.0.202105191637/eclipse/workspace/XMC4300-app/Libraries/XMCLib/inc\xmc_fce.h **** XMC_FCE_STATUS_t XMC_FCE_CalculateCRC8(const XMC_FCE_t *const engine,
 584:D:/Infineon/Tools/DAVE IDE/4.5.0.202105191637/eclipse/workspace/XMC4300-app/Libraries/XMCLib/inc\xmc_fce.h ****                                        const uint8_t *data,
 585:D:/Infineon/Tools/DAVE IDE/4.5.0.202105191637/eclipse/workspace/XMC4300-app/Libraries/XMCLib/inc\xmc_fce.h ****                                        uint32_t length,
 586:D:/Infineon/Tools/DAVE IDE/4.5.0.202105191637/eclipse/workspace/XMC4300-app/Libraries/XMCLib/inc\xmc_fce.h ****                                        uint8_t *result);
 587:D:/Infineon/Tools/DAVE IDE/4.5.0.202105191637/eclipse/workspace/XMC4300-app/Libraries/XMCLib/inc\xmc_fce.h **** 
 588:D:/Infineon/Tools/DAVE IDE/4.5.0.202105191637/eclipse/workspace/XMC4300-app/Libraries/XMCLib/inc\xmc_fce.h **** /**
 589:D:/Infineon/Tools/DAVE IDE/4.5.0.202105191637/eclipse/workspace/XMC4300-app/Libraries/XMCLib/inc\xmc_fce.h ****  * @param engine Constant pointer to ::XMC_FCE_t, pointing to the FCE base address
 590:D:/Infineon/Tools/DAVE IDE/4.5.0.202105191637/eclipse/workspace/XMC4300-app/Libraries/XMCLib/inc\xmc_fce.h ****  * @param data Pointer to the data buffer
 591:D:/Infineon/Tools/DAVE IDE/4.5.0.202105191637/eclipse/workspace/XMC4300-app/Libraries/XMCLib/inc\xmc_fce.h ****  * @param length Length of data buffer
 592:D:/Infineon/Tools/DAVE IDE/4.5.0.202105191637/eclipse/workspace/XMC4300-app/Libraries/XMCLib/inc\xmc_fce.h ****  * @param result Pointer to computed CRC result
 593:D:/Infineon/Tools/DAVE IDE/4.5.0.202105191637/eclipse/workspace/XMC4300-app/Libraries/XMCLib/inc\xmc_fce.h ****  * @return XMC_FCE_STATUS_ERROR on error
 594:D:/Infineon/Tools/DAVE IDE/4.5.0.202105191637/eclipse/workspace/XMC4300-app/Libraries/XMCLib/inc\xmc_fce.h ****  * @return XMC_FCE_STATUS_SUCCESS otherwise.
 595:D:/Infineon/Tools/DAVE IDE/4.5.0.202105191637/eclipse/workspace/XMC4300-app/Libraries/XMCLib/inc\xmc_fce.h ****  *
 596:D:/Infineon/Tools/DAVE IDE/4.5.0.202105191637/eclipse/workspace/XMC4300-app/Libraries/XMCLib/inc\xmc_fce.h ****  * \par<b>Description: </b><br>
 597:D:/Infineon/Tools/DAVE IDE/4.5.0.202105191637/eclipse/workspace/XMC4300-app/Libraries/XMCLib/inc\xmc_fce.h ****  * Calculate and update the RC16 checksum in the result pointer <br>
 598:D:/Infineon/Tools/DAVE IDE/4.5.0.202105191637/eclipse/workspace/XMC4300-app/Libraries/XMCLib/inc\xmc_fce.h ****  *
 599:D:/Infineon/Tools/DAVE IDE/4.5.0.202105191637/eclipse/workspace/XMC4300-app/Libraries/XMCLib/inc\xmc_fce.h ****  * \par<b>Note: </b><br>
 600:D:/Infineon/Tools/DAVE IDE/4.5.0.202105191637/eclipse/workspace/XMC4300-app/Libraries/XMCLib/inc\xmc_fce.h ****  * A write to Internal Register (IRm m = 2) triggers the CRC kernel to update the
 601:D:/Infineon/Tools/DAVE IDE/4.5.0.202105191637/eclipse/workspace/XMC4300-app/Libraries/XMCLib/inc\xmc_fce.h ****  * message checksum according to the IR and current CRC register contents. Only 32-bit
 602:D:/Infineon/Tools/DAVE IDE/4.5.0.202105191637/eclipse/workspace/XMC4300-app/Libraries/XMCLib/inc\xmc_fce.h ****  * or 16-bit write transactions are permitted. Any other bus write transaction will
 603:D:/Infineon/Tools/DAVE IDE/4.5.0.202105191637/eclipse/workspace/XMC4300-app/Libraries/XMCLib/inc\xmc_fce.h ****  * lead to a bus error. Only the lower 16-bit of the write transactions will be used.
 604:D:/Infineon/Tools/DAVE IDE/4.5.0.202105191637/eclipse/workspace/XMC4300-app/Libraries/XMCLib/inc\xmc_fce.h ****  * ::XMC_FCE_GetCRCResult() should be called after ::XMC_FCE_CalculateCRC16() to get
 605:D:/Infineon/Tools/DAVE IDE/4.5.0.202105191637/eclipse/workspace/XMC4300-app/Libraries/XMCLib/inc\xmc_fce.h ****  * final CRC value.
 606:D:/Infineon/Tools/DAVE IDE/4.5.0.202105191637/eclipse/workspace/XMC4300-app/Libraries/XMCLib/inc\xmc_fce.h ****  */
 607:D:/Infineon/Tools/DAVE IDE/4.5.0.202105191637/eclipse/workspace/XMC4300-app/Libraries/XMCLib/inc\xmc_fce.h **** XMC_FCE_STATUS_t XMC_FCE_CalculateCRC16(const XMC_FCE_t *const engine,
 608:D:/Infineon/Tools/DAVE IDE/4.5.0.202105191637/eclipse/workspace/XMC4300-app/Libraries/XMCLib/inc\xmc_fce.h ****                                         const uint16_t *data,
 609:D:/Infineon/Tools/DAVE IDE/4.5.0.202105191637/eclipse/workspace/XMC4300-app/Libraries/XMCLib/inc\xmc_fce.h ****                                         uint32_t length,
 610:D:/Infineon/Tools/DAVE IDE/4.5.0.202105191637/eclipse/workspace/XMC4300-app/Libraries/XMCLib/inc\xmc_fce.h ****                                         uint16_t *result);
 611:D:/Infineon/Tools/DAVE IDE/4.5.0.202105191637/eclipse/workspace/XMC4300-app/Libraries/XMCLib/inc\xmc_fce.h **** 
 612:D:/Infineon/Tools/DAVE IDE/4.5.0.202105191637/eclipse/workspace/XMC4300-app/Libraries/XMCLib/inc\xmc_fce.h **** /**
 613:D:/Infineon/Tools/DAVE IDE/4.5.0.202105191637/eclipse/workspace/XMC4300-app/Libraries/XMCLib/inc\xmc_fce.h ****  * @param engine Constant pointer to ::XMC_FCE_t, pointing to the FCE base address
 614:D:/Infineon/Tools/DAVE IDE/4.5.0.202105191637/eclipse/workspace/XMC4300-app/Libraries/XMCLib/inc\xmc_fce.h ****  * @param data Pointer to the data buffer
 615:D:/Infineon/Tools/DAVE IDE/4.5.0.202105191637/eclipse/workspace/XMC4300-app/Libraries/XMCLib/inc\xmc_fce.h ****  * @param length Length of data buffer
 616:D:/Infineon/Tools/DAVE IDE/4.5.0.202105191637/eclipse/workspace/XMC4300-app/Libraries/XMCLib/inc\xmc_fce.h ****  * @param result Pointer to computed CRC result
 617:D:/Infineon/Tools/DAVE IDE/4.5.0.202105191637/eclipse/workspace/XMC4300-app/Libraries/XMCLib/inc\xmc_fce.h ****  * @return XMC_FCE_STATUS_ERROR on error
 618:D:/Infineon/Tools/DAVE IDE/4.5.0.202105191637/eclipse/workspace/XMC4300-app/Libraries/XMCLib/inc\xmc_fce.h ****  * @return XMC_FCE_STATUS_SUCCESS otherwise.
 619:D:/Infineon/Tools/DAVE IDE/4.5.0.202105191637/eclipse/workspace/XMC4300-app/Libraries/XMCLib/inc\xmc_fce.h ****  *
 620:D:/Infineon/Tools/DAVE IDE/4.5.0.202105191637/eclipse/workspace/XMC4300-app/Libraries/XMCLib/inc\xmc_fce.h ****  * \par<b>Description: </b><br>
 621:D:/Infineon/Tools/DAVE IDE/4.5.0.202105191637/eclipse/workspace/XMC4300-app/Libraries/XMCLib/inc\xmc_fce.h ****  * Calculate and update the RC16 checksum in the result pointer <br>
 622:D:/Infineon/Tools/DAVE IDE/4.5.0.202105191637/eclipse/workspace/XMC4300-app/Libraries/XMCLib/inc\xmc_fce.h ****  *
 623:D:/Infineon/Tools/DAVE IDE/4.5.0.202105191637/eclipse/workspace/XMC4300-app/Libraries/XMCLib/inc\xmc_fce.h ****  * \par<b>Note: </b><br>
 624:D:/Infineon/Tools/DAVE IDE/4.5.0.202105191637/eclipse/workspace/XMC4300-app/Libraries/XMCLib/inc\xmc_fce.h ****  * Alternative to XMC_FCE_CalculateCRC16() where a uint8_t data array can be used
 625:D:/Infineon/Tools/DAVE IDE/4.5.0.202105191637/eclipse/workspace/XMC4300-app/Libraries/XMCLib/inc\xmc_fce.h ****  */
 626:D:/Infineon/Tools/DAVE IDE/4.5.0.202105191637/eclipse/workspace/XMC4300-app/Libraries/XMCLib/inc\xmc_fce.h **** XMC_FCE_STATUS_t XMC_FCE_CalculateCRC16Ex(const XMC_FCE_t *const engine,
 627:D:/Infineon/Tools/DAVE IDE/4.5.0.202105191637/eclipse/workspace/XMC4300-app/Libraries/XMCLib/inc\xmc_fce.h ****     const uint8_t *data,
 628:D:/Infineon/Tools/DAVE IDE/4.5.0.202105191637/eclipse/workspace/XMC4300-app/Libraries/XMCLib/inc\xmc_fce.h ****     uint32_t length,
 629:D:/Infineon/Tools/DAVE IDE/4.5.0.202105191637/eclipse/workspace/XMC4300-app/Libraries/XMCLib/inc\xmc_fce.h ****     uint16_t *const result);
 630:D:/Infineon/Tools/DAVE IDE/4.5.0.202105191637/eclipse/workspace/XMC4300-app/Libraries/XMCLib/inc\xmc_fce.h **** 
 631:D:/Infineon/Tools/DAVE IDE/4.5.0.202105191637/eclipse/workspace/XMC4300-app/Libraries/XMCLib/inc\xmc_fce.h **** /**
 632:D:/Infineon/Tools/DAVE IDE/4.5.0.202105191637/eclipse/workspace/XMC4300-app/Libraries/XMCLib/inc\xmc_fce.h ****  * @param engine Constant pointer to @ref XMC_FCE_t, pointing to the FCE base address
 633:D:/Infineon/Tools/DAVE IDE/4.5.0.202105191637/eclipse/workspace/XMC4300-app/Libraries/XMCLib/inc\xmc_fce.h ****  * @param data Pointer to the data buffer
 634:D:/Infineon/Tools/DAVE IDE/4.5.0.202105191637/eclipse/workspace/XMC4300-app/Libraries/XMCLib/inc\xmc_fce.h ****  * @param length Total number of bytes of data buffer
 635:D:/Infineon/Tools/DAVE IDE/4.5.0.202105191637/eclipse/workspace/XMC4300-app/Libraries/XMCLib/inc\xmc_fce.h ****  * @param result Pointer to computed CRC result
 636:D:/Infineon/Tools/DAVE IDE/4.5.0.202105191637/eclipse/workspace/XMC4300-app/Libraries/XMCLib/inc\xmc_fce.h ****  * @return XMC_FCE_STATUS_ERROR on error
 637:D:/Infineon/Tools/DAVE IDE/4.5.0.202105191637/eclipse/workspace/XMC4300-app/Libraries/XMCLib/inc\xmc_fce.h ****  * @return XMC_FCE_STATUS_SUCCESS otherwise.
 638:D:/Infineon/Tools/DAVE IDE/4.5.0.202105191637/eclipse/workspace/XMC4300-app/Libraries/XMCLib/inc\xmc_fce.h ****  *
 639:D:/Infineon/Tools/DAVE IDE/4.5.0.202105191637/eclipse/workspace/XMC4300-app/Libraries/XMCLib/inc\xmc_fce.h ****  * \par<b>Description</b><br>
 640:D:/Infineon/Tools/DAVE IDE/4.5.0.202105191637/eclipse/workspace/XMC4300-app/Libraries/XMCLib/inc\xmc_fce.h ****  * Calculate and update the calculated CRC32 checksum in the result pointer <br>
 641:D:/Infineon/Tools/DAVE IDE/4.5.0.202105191637/eclipse/workspace/XMC4300-app/Libraries/XMCLib/inc\xmc_fce.h ****  *
 642:D:/Infineon/Tools/DAVE IDE/4.5.0.202105191637/eclipse/workspace/XMC4300-app/Libraries/XMCLib/inc\xmc_fce.h ****  * \par<b>Note:</b><br>
 643:D:/Infineon/Tools/DAVE IDE/4.5.0.202105191637/eclipse/workspace/XMC4300-app/Libraries/XMCLib/inc\xmc_fce.h ****  * A write to Internal Register (IRm, m = 0-1) triggers the CRC kernel to update
 644:D:/Infineon/Tools/DAVE IDE/4.5.0.202105191637/eclipse/workspace/XMC4300-app/Libraries/XMCLib/inc\xmc_fce.h ****  * the message checksum according to the IR and current CRC register contents. Only
 645:D:/Infineon/Tools/DAVE IDE/4.5.0.202105191637/eclipse/workspace/XMC4300-app/Libraries/XMCLib/inc\xmc_fce.h ****  * 32-bit write transactions are permitted. Any other bus write transaction will
 646:D:/Infineon/Tools/DAVE IDE/4.5.0.202105191637/eclipse/workspace/XMC4300-app/Libraries/XMCLib/inc\xmc_fce.h ****  * lead to a bus error. ::XMC_FCE_GetCRCResult() should be called after
 647:D:/Infineon/Tools/DAVE IDE/4.5.0.202105191637/eclipse/workspace/XMC4300-app/Libraries/XMCLib/inc\xmc_fce.h ****  * ::XMC_FCE_CalculateCRC32() to get final CRC value.
 648:D:/Infineon/Tools/DAVE IDE/4.5.0.202105191637/eclipse/workspace/XMC4300-app/Libraries/XMCLib/inc\xmc_fce.h ****  */
 649:D:/Infineon/Tools/DAVE IDE/4.5.0.202105191637/eclipse/workspace/XMC4300-app/Libraries/XMCLib/inc\xmc_fce.h **** XMC_FCE_STATUS_t XMC_FCE_CalculateCRC32(const XMC_FCE_t *const engine,
 650:D:/Infineon/Tools/DAVE IDE/4.5.0.202105191637/eclipse/workspace/XMC4300-app/Libraries/XMCLib/inc\xmc_fce.h ****                                         const uint32_t *data,
 651:D:/Infineon/Tools/DAVE IDE/4.5.0.202105191637/eclipse/workspace/XMC4300-app/Libraries/XMCLib/inc\xmc_fce.h ****                                         uint32_t length,
 652:D:/Infineon/Tools/DAVE IDE/4.5.0.202105191637/eclipse/workspace/XMC4300-app/Libraries/XMCLib/inc\xmc_fce.h ****                                         uint32_t *result);
 653:D:/Infineon/Tools/DAVE IDE/4.5.0.202105191637/eclipse/workspace/XMC4300-app/Libraries/XMCLib/inc\xmc_fce.h **** 
 654:D:/Infineon/Tools/DAVE IDE/4.5.0.202105191637/eclipse/workspace/XMC4300-app/Libraries/XMCLib/inc\xmc_fce.h **** /**
 655:D:/Infineon/Tools/DAVE IDE/4.5.0.202105191637/eclipse/workspace/XMC4300-app/Libraries/XMCLib/inc\xmc_fce.h ****  * @param engine Constant pointer to @ref XMC_FCE_t, pointing to the FCE base address
 656:D:/Infineon/Tools/DAVE IDE/4.5.0.202105191637/eclipse/workspace/XMC4300-app/Libraries/XMCLib/inc\xmc_fce.h ****  * @param data Pointer to the data buffer
 657:D:/Infineon/Tools/DAVE IDE/4.5.0.202105191637/eclipse/workspace/XMC4300-app/Libraries/XMCLib/inc\xmc_fce.h ****  * @param length Total number of bytes of data buffer
 658:D:/Infineon/Tools/DAVE IDE/4.5.0.202105191637/eclipse/workspace/XMC4300-app/Libraries/XMCLib/inc\xmc_fce.h ****  * @param result Pointer to computed CRC result
 659:D:/Infineon/Tools/DAVE IDE/4.5.0.202105191637/eclipse/workspace/XMC4300-app/Libraries/XMCLib/inc\xmc_fce.h ****  * @return XMC_FCE_STATUS_ERROR on error
 660:D:/Infineon/Tools/DAVE IDE/4.5.0.202105191637/eclipse/workspace/XMC4300-app/Libraries/XMCLib/inc\xmc_fce.h ****  * @return XMC_FCE_STATUS_SUCCESS otherwise.
 661:D:/Infineon/Tools/DAVE IDE/4.5.0.202105191637/eclipse/workspace/XMC4300-app/Libraries/XMCLib/inc\xmc_fce.h ****  *
 662:D:/Infineon/Tools/DAVE IDE/4.5.0.202105191637/eclipse/workspace/XMC4300-app/Libraries/XMCLib/inc\xmc_fce.h ****  * \par<b>Description</b><br>
 663:D:/Infineon/Tools/DAVE IDE/4.5.0.202105191637/eclipse/workspace/XMC4300-app/Libraries/XMCLib/inc\xmc_fce.h ****  * Calculate and update the calculated CRC32 checksum in the result pointer <br>
 664:D:/Infineon/Tools/DAVE IDE/4.5.0.202105191637/eclipse/workspace/XMC4300-app/Libraries/XMCLib/inc\xmc_fce.h ****  *
 665:D:/Infineon/Tools/DAVE IDE/4.5.0.202105191637/eclipse/workspace/XMC4300-app/Libraries/XMCLib/inc\xmc_fce.h ****  * \par<b>Note:</b><br>
 666:D:/Infineon/Tools/DAVE IDE/4.5.0.202105191637/eclipse/workspace/XMC4300-app/Libraries/XMCLib/inc\xmc_fce.h ****  * Alternative to XMC_FCE_CalculateCRC32() where a uint8_t data array can be used
 667:D:/Infineon/Tools/DAVE IDE/4.5.0.202105191637/eclipse/workspace/XMC4300-app/Libraries/XMCLib/inc\xmc_fce.h ****  */
 668:D:/Infineon/Tools/DAVE IDE/4.5.0.202105191637/eclipse/workspace/XMC4300-app/Libraries/XMCLib/inc\xmc_fce.h **** XMC_FCE_STATUS_t XMC_FCE_CalculateCRC32Ex(const XMC_FCE_t *const engine,
 669:D:/Infineon/Tools/DAVE IDE/4.5.0.202105191637/eclipse/workspace/XMC4300-app/Libraries/XMCLib/inc\xmc_fce.h ****     const uint8_t *data,
 670:D:/Infineon/Tools/DAVE IDE/4.5.0.202105191637/eclipse/workspace/XMC4300-app/Libraries/XMCLib/inc\xmc_fce.h ****     uint32_t length,
 671:D:/Infineon/Tools/DAVE IDE/4.5.0.202105191637/eclipse/workspace/XMC4300-app/Libraries/XMCLib/inc\xmc_fce.h ****     uint32_t *const result);
 672:D:/Infineon/Tools/DAVE IDE/4.5.0.202105191637/eclipse/workspace/XMC4300-app/Libraries/XMCLib/inc\xmc_fce.h **** 
 673:D:/Infineon/Tools/DAVE IDE/4.5.0.202105191637/eclipse/workspace/XMC4300-app/Libraries/XMCLib/inc\xmc_fce.h **** /**
 674:D:/Infineon/Tools/DAVE IDE/4.5.0.202105191637/eclipse/workspace/XMC4300-app/Libraries/XMCLib/inc\xmc_fce.h ****  * @param engine Constant pointer to ::XMC_FCE_t, pointing to the FCE base address
 675:D:/Infineon/Tools/DAVE IDE/4.5.0.202105191637/eclipse/workspace/XMC4300-app/Libraries/XMCLib/inc\xmc_fce.h ****  * @param result Pointer to CRC result
 676:D:/Infineon/Tools/DAVE IDE/4.5.0.202105191637/eclipse/workspace/XMC4300-app/Libraries/XMCLib/inc\xmc_fce.h ****  * @return None
 677:D:/Infineon/Tools/DAVE IDE/4.5.0.202105191637/eclipse/workspace/XMC4300-app/Libraries/XMCLib/inc\xmc_fce.h ****  *
 678:D:/Infineon/Tools/DAVE IDE/4.5.0.202105191637/eclipse/workspace/XMC4300-app/Libraries/XMCLib/inc\xmc_fce.h ****  * \par<b>Description: </b><br>
 679:D:/Infineon/Tools/DAVE IDE/4.5.0.202105191637/eclipse/workspace/XMC4300-app/Libraries/XMCLib/inc\xmc_fce.h ****  * Read the final CRC value from RES register <br>
 680:D:/Infineon/Tools/DAVE IDE/4.5.0.202105191637/eclipse/workspace/XMC4300-app/Libraries/XMCLib/inc\xmc_fce.h ****  */
 681:D:/Infineon/Tools/DAVE IDE/4.5.0.202105191637/eclipse/workspace/XMC4300-app/Libraries/XMCLib/inc\xmc_fce.h **** __STATIC_INLINE void XMC_FCE_GetCRCResult(const XMC_FCE_t *const engine, uint32_t *result)
 682:D:/Infineon/Tools/DAVE IDE/4.5.0.202105191637/eclipse/workspace/XMC4300-app/Libraries/XMCLib/inc\xmc_fce.h **** {
  27              	 .loc 1 682 0
  28              	 .cfi_startproc
  29              	 
  30              	 
  31              	 
  32 0000 80B4     	 push {r7}
  33              	.LCFI0:
  34              	 .cfi_def_cfa_offset 4
  35              	 .cfi_offset 7,-4
  36 0002 83B0     	 sub sp,sp,#12
  37              	.LCFI1:
  38              	 .cfi_def_cfa_offset 16
  39 0004 00AF     	 add r7,sp,#0
  40              	.LCFI2:
  41              	 .cfi_def_cfa_register 7
  42 0006 7860     	 str r0,[r7,#4]
  43 0008 3960     	 str r1,[r7]
 683:D:/Infineon/Tools/DAVE IDE/4.5.0.202105191637/eclipse/workspace/XMC4300-app/Libraries/XMCLib/inc\xmc_fce.h ****   *result = engine->kernel_ptr->RES;
  44              	 .loc 1 683 0
  45 000a 7B68     	 ldr r3,[r7,#4]
  46 000c 1B68     	 ldr r3,[r3]
  47 000e 5A68     	 ldr r2,[r3,#4]
  48 0010 3B68     	 ldr r3,[r7]
  49 0012 1A60     	 str r2,[r3]
 684:D:/Infineon/Tools/DAVE IDE/4.5.0.202105191637/eclipse/workspace/XMC4300-app/Libraries/XMCLib/inc\xmc_fce.h **** }
  50              	 .loc 1 684 0
  51 0014 0C37     	 adds r7,r7,#12
  52              	.LCFI3:
  53              	 .cfi_def_cfa_offset 4
  54 0016 BD46     	 mov sp,r7
  55              	.LCFI4:
  56              	 .cfi_def_cfa_register 13
  57              	 
  58 0018 5DF8047B 	 ldr r7,[sp],#4
  59              	.LCFI5:
  60              	 .cfi_restore 7
  61              	 .cfi_def_cfa_offset 0
  62 001c 7047     	 bx lr
  63              	 .cfi_endproc
  64              	.LFE162:
  66              	 .global physical_sector_addresses
  67 001e 00BF     	 .section .data.physical_sector_addresses,"aw",%progbits
  68              	 .align 2
  71              	physical_sector_addresses:
  72 0000 0000000C 	 .word 201326592
  73 0004 0040000C 	 .word 201342976
  74 0008 0080000C 	 .word 201359360
  75 000c 00C0000C 	 .word 201375744
  76 0010 0000010C 	 .word 201392128
  77 0014 0040010C 	 .word 201408512
  78 0018 0080010C 	 .word 201424896
  79 001c 00C0010C 	 .word 201441280
  80 0020 0000020C 	 .word 201457664
  81 0024 0000040C 	 .word 201588736
  82              	 .section .data.FCE_config0,"aw",%progbits
  83              	 .align 2
  86              	FCE_config0:
  87 0000 20000250 	 .word 1342308384
  88 0004 00       	 .space 1
  89 0005 07       	 .byte 7
  90 0006 0000     	 .space 2
  91 0008 FFFFFFFF 	 .word -1
  92              	 .section .bss.gl_flash_write_address,"aw",%nobits
  93              	 .align 2
  96              	gl_flash_write_address:
  97 0000 00000000 	 .space 4
  98              	 .section .bss.gl_flash_write_start_address,"aw",%nobits
  99              	 .align 2
 102              	gl_flash_write_start_address:
 103 0000 00000000 	 .space 4
 104              	 .section .bss.gl_flash_bytes_written,"aw",%nobits
 105              	 .align 2
 108              	gl_flash_bytes_written:
 109 0000 00000000 	 .space 4
 110              	 .section .bss.gl_flash_check_prog,"aw",%nobits
 113              	gl_flash_check_prog:
 114 0000 00       	 .space 1
 115              	 .section .bss.gl_flash_erased,"aw",%nobits
 116              	 .align 1
 119              	gl_flash_erased:
 120 0000 0000     	 .space 2
 121              	 .section .bss.gl_flash_max_size,"aw",%nobits
 122              	 .align 2
 125              	gl_flash_max_size:
 126 0000 00000000 	 .space 4
 127              	 .section .bss.gl_flash_page_prep,"aw",%nobits
 128              	 .align 2
 131              	gl_flash_page_prep:
 132 0000 00000000 	 .space 256
 132      00000000 
 132      00000000 
 132      00000000 
 132      00000000 
 133              	 .section .bss.gl_flash_page_prep_index,"aw",%nobits
 134              	 .align 2
 137              	gl_flash_page_prep_index:
 138 0000 00000000 	 .space 4
 139              	 .section .text.Flash_lGetPhysicalSector,"ax",%progbits
 140              	 .align 2
 141              	 .global Flash_lGetPhysicalSector
 142              	 .thumb
 143              	 .thumb_func
 145              	Flash_lGetPhysicalSector:
 146              	.LFB163:
 147              	 .file 2 "../User/Src/flashprog.c"
   1:../User/Src/flashprog.c **** /******************************************************************************
   2:../User/Src/flashprog.c **** * Software License Agreement
   3:../User/Src/flashprog.c **** *
   4:../User/Src/flashprog.c **** * Copyright (c) 2016, Infineon Technologies AG
   5:../User/Src/flashprog.c **** * All rights reserved.
   6:../User/Src/flashprog.c **** *
   7:../User/Src/flashprog.c **** * Redistribution and use in source and binary forms, with or without
   8:../User/Src/flashprog.c **** * modification, are permitted provided that the following conditions are met:
   9:../User/Src/flashprog.c **** *
  10:../User/Src/flashprog.c **** * Redistributions of source code must retain the above copyright notice,
  11:../User/Src/flashprog.c **** * this list of conditions and the following disclaimer.
  12:../User/Src/flashprog.c **** *
  13:../User/Src/flashprog.c **** * Redistributions in binary form must reproduce the above copyright notice,
  14:../User/Src/flashprog.c **** * this list of conditions and the following disclaimer in the documentation
  15:../User/Src/flashprog.c **** * and/or other materials provided with the distribution.
  16:../User/Src/flashprog.c **** *
  17:../User/Src/flashprog.c **** * Neither the name of the copyright holders nor the names of its contributors
  18:../User/Src/flashprog.c **** * may be used to endorse or promote products derived from this software
  19:../User/Src/flashprog.c **** * without specific prior written permission
  20:../User/Src/flashprog.c **** 
  21:../User/Src/flashprog.c **** * THIS SOFTWARE IS PROVIDED BY THE COPYRIGHT HOLDERS AND CONTRIBUTORS "AS IS"
  22:../User/Src/flashprog.c **** * AND ANY EXPRESS OR IMPLIED WARRANTIES, INCLUDING, BUT NOT LIMITED TO, THE
  23:../User/Src/flashprog.c **** * IMPLIED WARRANTIES OF MERCHANTABILITY AND FITNESS FOR A PARTICULAR PURPOSE
  24:../User/Src/flashprog.c **** * ARE DISCLAIMED. IN NO EVENT SHALL THE COPYRIGHT HOLDER OR CONTRIBUTORS BE
  25:../User/Src/flashprog.c **** * LIABLE FOR ANY DIRECT, INDIRECT, INCIDENTAL, SPECIAL, EXEMPLARY, OR
  26:../User/Src/flashprog.c **** * CONSEQUENTIAL DAMAGES (INCLUDING, BUT NOT LIMITED TO, PROCUREMENT OF
  27:../User/Src/flashprog.c **** * SUBSTITUTE GOODS OR SERVICES; LOSS OF USE, DATA, OR PROFITS; OR BUSINESS
  28:../User/Src/flashprog.c **** * INTERRUPTION) HOWEVER CAUSED AND ON ANY THEORY OF LIABILITY, WHETHER IN
  29:../User/Src/flashprog.c **** * CONTRACT, STRICT LIABILITY,OR TORT (INCLUDING NEGLIGENCE OR OTHERWISE)
  30:../User/Src/flashprog.c **** * ARISING IN ANY WAY OUT OF THE USE OF THIS SOFTWARE, EVEN IF ADVISED OF THE
  31:../User/Src/flashprog.c **** * POSSIBILITY OF SUCH DAMAGE.
  32:../User/Src/flashprog.c **** *
  33:../User/Src/flashprog.c **** * To improve the quality of the software, users are encouraged to share
  34:../User/Src/flashprog.c **** * modifications, enhancements or bug fixes with Infineon Technologies AG
  35:../User/Src/flashprog.c **** * (dave@infineon.com).
  36:../User/Src/flashprog.c **** *
  37:../User/Src/flashprog.c **** * History:
  38:../User/Src/flashprog.c **** * V1.0 01.01.2016 initial revision
  39:../User/Src/flashprog.c **** * V1.1 08.01.2019 bugfix inside Flash_lCheckPhysicalSectorNumberInRange which
  40:../User/Src/flashprog.c **** *                 identified wrong sectors to be in range
  41:../User/Src/flashprog.c **** *
  42:../User/Src/flashprog.c **** *****************************************************************************/
  43:../User/Src/flashprog.c **** 
  44:../User/Src/flashprog.c **** /****************************************************************
  45:../User/Src/flashprog.c **** * HEADER FILES
  46:../User/Src/flashprog.c **** ***************************************************************/
  47:../User/Src/flashprog.c **** #include "xmc_flash.h"
  48:../User/Src/flashprog.c **** #include "flashprog.h"
  49:../User/Src/flashprog.c **** #include <xmc_fce.h>
  50:../User/Src/flashprog.c **** 
  51:../User/Src/flashprog.c **** /****************************************************************
  52:../User/Src/flashprog.c **** * MACROS AND DEFINES
  53:../User/Src/flashprog.c **** ***************************************************************/
  54:../User/Src/flashprog.c **** 
  55:../User/Src/flashprog.c **** /****************************************************************
  56:../User/Src/flashprog.c **** * LOCAL DATA
  57:../User/Src/flashprog.c **** ***************************************************************/
  58:../User/Src/flashprog.c **** /* * XMC4300 (256KB) 物理扇区表:
  59:../User/Src/flashprog.c ****  * Sectors 0-7:  16KB each (0x0C000000 - 0x0C01FFFF)
  60:../User/Src/flashprog.c ****  * Sector  8:    128KB     (0x0C020000 - 0x0C03FFFF)
  61:../User/Src/flashprog.c ****  */
  62:../User/Src/flashprog.c **** uint32_t* physical_sector_addresses[XMC_FLASH_SECTOR_COUNT_MAX + 1] =
  63:../User/Src/flashprog.c **** {
  64:../User/Src/flashprog.c ****   (uint32_t*)0x0C000000,  // Sector 0  (16KB) - Bootloader
  65:../User/Src/flashprog.c ****   (uint32_t*)0x0C004000,  // Sector 1  (16KB) - EEPROM
  66:../User/Src/flashprog.c ****   (uint32_t*)0x0C008000,  // Sector 2  (16KB) - Backup Start
  67:../User/Src/flashprog.c ****   (uint32_t*)0x0C00C000,  // Sector 3  (16KB)
  68:../User/Src/flashprog.c ****   (uint32_t*)0x0C010000,  // Sector 4  (16KB)
  69:../User/Src/flashprog.c ****   (uint32_t*)0x0C014000,  // Sector 5  (16KB)
  70:../User/Src/flashprog.c ****   (uint32_t*)0x0C018000,  // Sector 6  (16KB)
  71:../User/Src/flashprog.c ****   (uint32_t*)0x0C01C000,  // Sector 7  (16KB) - Backup End
  72:../User/Src/flashprog.c ****   (uint32_t*)0x0C020000,  // Sector 8  (128KB) - Application Run Area
  73:../User/Src/flashprog.c ****   (uint32_t*)0x0C040000   // End of Flash (Start of non-existent Sector 9)
  74:../User/Src/flashprog.c **** };
  75:../User/Src/flashprog.c **** 
  76:../User/Src/flashprog.c **** /* Specification to initialize FCE for CRC32 calculation*/
  77:../User/Src/flashprog.c **** static XMC_FCE_t FCE_config0 =
  78:../User/Src/flashprog.c **** {
  79:../User/Src/flashprog.c ****   .kernel_ptr    = XMC_FCE_CRC32_0,    /**< FCE Kernel Pointer */
  80:../User/Src/flashprog.c ****   .fce_cfg_update.config_xsel = true,
  81:../User/Src/flashprog.c ****   .fce_cfg_update.config_refin = true,
  82:../User/Src/flashprog.c ****   .fce_cfg_update.config_refout = true,
  83:../User/Src/flashprog.c ****   .seedvalue = 0xffffffff
  84:../User/Src/flashprog.c **** };
  85:../User/Src/flashprog.c **** 
  86:../User/Src/flashprog.c **** static uint32_t* gl_flash_write_address;
  87:../User/Src/flashprog.c **** static uint32_t* gl_flash_write_start_address;
  88:../User/Src/flashprog.c **** static uint32_t  gl_flash_bytes_written=0;
  89:../User/Src/flashprog.c **** static uint8_t   gl_flash_check_prog;
  90:../User/Src/flashprog.c **** static uint16_t  gl_flash_erased;
  91:../User/Src/flashprog.c **** static uint32_t  gl_flash_max_size=0;
  92:../User/Src/flashprog.c **** static uint8_t   gl_flash_page_prep[256];
  93:../User/Src/flashprog.c **** static uint32_t  gl_flash_page_prep_index=0;
  94:../User/Src/flashprog.c **** 
  95:../User/Src/flashprog.c **** /****************************************************************
  96:../User/Src/flashprog.c **** * API PROTOTYPES
  97:../User/Src/flashprog.c **** ***************************************************************/
  98:../User/Src/flashprog.c **** 
  99:../User/Src/flashprog.c **** /****************************************************************
 100:../User/Src/flashprog.c **** * API IMPLEMENTATION
 101:../User/Src/flashprog.c **** ***************************************************************/
 102:../User/Src/flashprog.c **** /**
 103:../User/Src/flashprog.c ****  * @brief Flash_lGetPhysicalSector
 104:../User/Src/flashprog.c ****  *
 105:../User/Src/flashprog.c ****  * Returns the sector start address of physical sector to which an address belongs
 106:../User/Src/flashprog.c ****  *
 107:../User/Src/flashprog.c ****  * @input :  address : address for which the start address of physical sector
 108:../User/Src/flashprog.c ****  *                     is returned
 109:../User/Src/flashprog.c ****  *
 110:../User/Src/flashprog.c ****  * @output : none
 111:../User/Src/flashprog.c ****  *
 112:../User/Src/flashprog.c ****  * @return : start address of physical sector
 113:../User/Src/flashprog.c ****  *
 114:../User/Src/flashprog.c ****  */
 115:../User/Src/flashprog.c **** uint32_t* Flash_lGetPhysicalSector(uint32_t* address)
 116:../User/Src/flashprog.c **** {
 148              	 .loc 2 116 0
 149              	 .cfi_startproc
 150              	 
 151              	 
 152              	 
 153 0000 80B4     	 push {r7}
 154              	.LCFI6:
 155              	 .cfi_def_cfa_offset 4
 156              	 .cfi_offset 7,-4
 157 0002 85B0     	 sub sp,sp,#20
 158              	.LCFI7:
 159              	 .cfi_def_cfa_offset 24
 160 0004 00AF     	 add r7,sp,#0
 161              	.LCFI8:
 162              	 .cfi_def_cfa_register 7
 163 0006 7860     	 str r0,[r7,#4]
 117:../User/Src/flashprog.c ****   uint8_t sector_number;
 118:../User/Src/flashprog.c **** 
 119:../User/Src/flashprog.c ****   for (sector_number=0; sector_number<XMC_FLASH_SECTOR_COUNT_MAX; sector_number++)
 164              	 .loc 2 119 0
 165 0008 0023     	 movs r3,#0
 166 000a FB73     	 strb r3,[r7,#15]
 167 000c 16E0     	 b .L3
 168              	.L6:
 120:../User/Src/flashprog.c ****   {
 121:../User/Src/flashprog.c ****     if ((address>=physical_sector_addresses[sector_number]) && (address<physical_sector_addresses[s
 169              	 .loc 2 121 0
 170 000e FB7B     	 ldrb r3,[r7,#15]
 171 0010 0F4A     	 ldr r2,.L7
 172 0012 52F82320 	 ldr r2,[r2,r3,lsl#2]
 173 0016 7B68     	 ldr r3,[r7,#4]
 174 0018 9A42     	 cmp r2,r3
 175 001a 0CD8     	 bhi .L4
 176              	 .loc 2 121 0 is_stmt 0 discriminator 1
 177 001c FB7B     	 ldrb r3,[r7,#15]
 178 001e 0133     	 adds r3,r3,#1
 179 0020 0B4A     	 ldr r2,.L7
 180 0022 52F82320 	 ldr r2,[r2,r3,lsl#2]
 181 0026 7B68     	 ldr r3,[r7,#4]
 182 0028 9A42     	 cmp r2,r3
 183 002a 04D9     	 bls .L4
 122:../User/Src/flashprog.c ****       return physical_sector_addresses[sector_number];
 184              	 .loc 2 122 0 is_stmt 1
 185 002c FB7B     	 ldrb r3,[r7,#15]
 186 002e 084A     	 ldr r2,.L7
 187 0030 52F82330 	 ldr r3,[r2,r3,lsl#2]
 188 0034 06E0     	 b .L5
 189              	.L4:
 119:../User/Src/flashprog.c ****   {
 190              	 .loc 2 119 0 discriminator 2
 191 0036 FB7B     	 ldrb r3,[r7,#15]
 192 0038 0133     	 adds r3,r3,#1
 193 003a FB73     	 strb r3,[r7,#15]
 194              	.L3:
 119:../User/Src/flashprog.c ****   {
 195              	 .loc 2 119 0 is_stmt 0 discriminator 1
 196 003c FB7B     	 ldrb r3,[r7,#15]
 197 003e 082B     	 cmp r3,#8
 198 0040 E5D9     	 bls .L6
 123:../User/Src/flashprog.c ****   }
 124:../User/Src/flashprog.c ****   /* should not be reached */
 125:../User/Src/flashprog.c ****   return 0;
 199              	 .loc 2 125 0 is_stmt 1
 200 0042 0023     	 movs r3,#0
 201              	.L5:
 126:../User/Src/flashprog.c **** }
 202              	 .loc 2 126 0
 203 0044 1846     	 mov r0,r3
 204 0046 1437     	 adds r7,r7,#20
 205              	.LCFI9:
 206              	 .cfi_def_cfa_offset 4
 207 0048 BD46     	 mov sp,r7
 208              	.LCFI10:
 209              	 .cfi_def_cfa_register 13
 210              	 
 211 004a 5DF8047B 	 ldr r7,[sp],#4
 212              	.LCFI11:
 213              	 .cfi_restore 7
 214              	 .cfi_def_cfa_offset 0
 215 004e 7047     	 bx lr
 216              	.L8:
 217              	 .align 2
 218              	.L7:
 219 0050 00000000 	 .word physical_sector_addresses
 220              	 .cfi_endproc
 221              	.LFE163:
 223              	 .section .text.Flash_lGetPhysicalSectorNumber,"ax",%progbits
 224              	 .align 2
 225              	 .global Flash_lGetPhysicalSectorNumber
 226              	 .thumb
 227              	 .thumb_func
 229              	Flash_lGetPhysicalSectorNumber:
 230              	.LFB164:
 127:../User/Src/flashprog.c **** 
 128:../User/Src/flashprog.c **** /**
 129:../User/Src/flashprog.c ****  * @brief Flash_lGetPhysicalSectorNumber
 130:../User/Src/flashprog.c ****  *
 131:../User/Src/flashprog.c ****  * Returns the sector number of physical sector having a certain start address
 132:../User/Src/flashprog.c ****  *
 133:../User/Src/flashprog.c ****  * @input :  physical_sector_start_address : address of physical sector for which the
 134:../User/Src/flashprog.c ****  *                                   sector number is returned
 135:../User/Src/flashprog.c ****  *
 136:../User/Src/flashprog.c ****  * @output : none
 137:../User/Src/flashprog.c ****  *
 138:../User/Src/flashprog.c ****  * @return : sector number
 139:../User/Src/flashprog.c ****  *
 140:../User/Src/flashprog.c ****  */
 141:../User/Src/flashprog.c **** uint8_t Flash_lGetPhysicalSectorNumber(uint32_t* physical_sector_start_address)
 142:../User/Src/flashprog.c **** {
 231              	 .loc 2 142 0
 232              	 .cfi_startproc
 233              	 
 234              	 
 235              	 
 236 0000 80B4     	 push {r7}
 237              	.LCFI12:
 238              	 .cfi_def_cfa_offset 4
 239              	 .cfi_offset 7,-4
 240 0002 85B0     	 sub sp,sp,#20
 241              	.LCFI13:
 242              	 .cfi_def_cfa_offset 24
 243 0004 00AF     	 add r7,sp,#0
 244              	.LCFI14:
 245              	 .cfi_def_cfa_register 7
 246 0006 7860     	 str r0,[r7,#4]
 143:../User/Src/flashprog.c ****   uint8_t sector_number;
 144:../User/Src/flashprog.c **** 
 145:../User/Src/flashprog.c ****   for (sector_number=0; sector_number<XMC_FLASH_SECTOR_COUNT_MAX; sector_number++)
 247              	 .loc 2 145 0
 248 0008 0023     	 movs r3,#0
 249 000a FB73     	 strb r3,[r7,#15]
 250 000c 0BE0     	 b .L10
 251              	.L13:
 146:../User/Src/flashprog.c ****   {
 147:../User/Src/flashprog.c ****     if (physical_sector_start_address==physical_sector_addresses[sector_number])
 252              	 .loc 2 147 0
 253 000e FB7B     	 ldrb r3,[r7,#15]
 254 0010 0A4A     	 ldr r2,.L14
 255 0012 52F82320 	 ldr r2,[r2,r3,lsl#2]
 256 0016 7B68     	 ldr r3,[r7,#4]
 257 0018 9A42     	 cmp r2,r3
 258 001a 01D1     	 bne .L11
 148:../User/Src/flashprog.c ****       return sector_number;
 259              	 .loc 2 148 0
 260 001c FB7B     	 ldrb r3,[r7,#15]
 261 001e 06E0     	 b .L12
 262              	.L11:
 145:../User/Src/flashprog.c ****   {
 263              	 .loc 2 145 0 discriminator 2
 264 0020 FB7B     	 ldrb r3,[r7,#15]
 265 0022 0133     	 adds r3,r3,#1
 266 0024 FB73     	 strb r3,[r7,#15]
 267              	.L10:
 145:../User/Src/flashprog.c ****   {
 268              	 .loc 2 145 0 is_stmt 0 discriminator 1
 269 0026 FB7B     	 ldrb r3,[r7,#15]
 270 0028 082B     	 cmp r3,#8
 271 002a F0D9     	 bls .L13
 149:../User/Src/flashprog.c ****   }
 150:../User/Src/flashprog.c ****   return 0;
 272              	 .loc 2 150 0 is_stmt 1
 273 002c 0023     	 movs r3,#0
 274              	.L12:
 151:../User/Src/flashprog.c **** }
 275              	 .loc 2 151 0
 276 002e 1846     	 mov r0,r3
 277 0030 1437     	 adds r7,r7,#20
 278              	.LCFI15:
 279              	 .cfi_def_cfa_offset 4
 280 0032 BD46     	 mov sp,r7
 281              	.LCFI16:
 282              	 .cfi_def_cfa_register 13
 283              	 
 284 0034 5DF8047B 	 ldr r7,[sp],#4
 285              	.LCFI17:
 286              	 .cfi_restore 7
 287              	 .cfi_def_cfa_offset 0
 288 0038 7047     	 bx lr
 289              	.L15:
 290 003a 00BF     	 .align 2
 291              	.L14:
 292 003c 00000000 	 .word physical_sector_addresses
 293              	 .cfi_endproc
 294              	.LFE164:
 296              	 .section .text.Flash_lGetPhysicalSectorAddress,"ax",%progbits
 297              	 .align 2
 298              	 .global Flash_lGetPhysicalSectorAddress
 299              	 .thumb
 300              	 .thumb_func
 302              	Flash_lGetPhysicalSectorAddress:
 303              	.LFB165:
 152:../User/Src/flashprog.c **** 
 153:../User/Src/flashprog.c **** /**
 154:../User/Src/flashprog.c ****  * @brief Flash_lGetPhysicalSectorAddress
 155:../User/Src/flashprog.c ****  *
 156:../User/Src/flashprog.c ****  * Returns the start address of a physical sector defined by a sector number
 157:../User/Src/flashprog.c ****  *
 158:../User/Src/flashprog.c ****  * @input :  physical_sector_number : number of physical sector
 159:../User/Src/flashprog.c ****  *
 160:../User/Src/flashprog.c ****  * @output : none
 161:../User/Src/flashprog.c ****  *
 162:../User/Src/flashprog.c ****  * @return : start address of the physical sector
 163:../User/Src/flashprog.c ****  *
 164:../User/Src/flashprog.c ****  */
 165:../User/Src/flashprog.c **** uint32_t* Flash_lGetPhysicalSectorAddress(uint8_t physical_sector_number)
 166:../User/Src/flashprog.c **** {
 304              	 .loc 2 166 0
 305              	 .cfi_startproc
 306              	 
 307              	 
 308              	 
 309 0000 80B4     	 push {r7}
 310              	.LCFI18:
 311              	 .cfi_def_cfa_offset 4
 312              	 .cfi_offset 7,-4
 313 0002 83B0     	 sub sp,sp,#12
 314              	.LCFI19:
 315              	 .cfi_def_cfa_offset 16
 316 0004 00AF     	 add r7,sp,#0
 317              	.LCFI20:
 318              	 .cfi_def_cfa_register 7
 319 0006 0346     	 mov r3,r0
 320 0008 FB71     	 strb r3,[r7,#7]
 167:../User/Src/flashprog.c ****   return physical_sector_addresses[physical_sector_number];
 321              	 .loc 2 167 0
 322 000a FB79     	 ldrb r3,[r7,#7]
 323 000c 044A     	 ldr r2,.L18
 324 000e 52F82330 	 ldr r3,[r2,r3,lsl#2]
 168:../User/Src/flashprog.c **** }
 325              	 .loc 2 168 0
 326 0012 1846     	 mov r0,r3
 327 0014 0C37     	 adds r7,r7,#12
 328              	.LCFI21:
 329              	 .cfi_def_cfa_offset 4
 330 0016 BD46     	 mov sp,r7
 331              	.LCFI22:
 332              	 .cfi_def_cfa_register 13
 333              	 
 334 0018 5DF8047B 	 ldr r7,[sp],#4
 335              	.LCFI23:
 336              	 .cfi_restore 7
 337              	 .cfi_def_cfa_offset 0
 338 001c 7047     	 bx lr
 339              	.L19:
 340 001e 00BF     	 .align 2
 341              	.L18:
 342 0020 00000000 	 .word physical_sector_addresses
 343              	 .cfi_endproc
 344              	.LFE165:
 346              	 .section .text.Flash_lCheckPhysicalSectorNumberInRange,"ax",%progbits
 347              	 .align 2
 348              	 .global Flash_lCheckPhysicalSectorNumberInRange
 349              	 .thumb
 350              	 .thumb_func
 352              	Flash_lCheckPhysicalSectorNumberInRange:
 353              	.LFB166:
 169:../User/Src/flashprog.c **** 
 170:../User/Src/flashprog.c **** /**
 171:../User/Src/flashprog.c ****  * @brief Flash_lCheckPhysicalSectorNumberInRange
 172:../User/Src/flashprog.c ****  *
 173:../User/Src/flashprog.c ****  * Checks if a physical sector defined by a sector number overlaps with an address range
 174:../User/Src/flashprog.c ****  *
 175:../User/Src/flashprog.c ****  * @input :  ptr_startaddress : start address of range
 176:../User/Src/flashprog.c ****  *           size_bytes       : size of range in bytes
 177:../User/Src/flashprog.c ****  *           sector_number    : sector number to check
 178:../User/Src/flashprog.c ****  *
 179:../User/Src/flashprog.c ****  * @output : none
 180:../User/Src/flashprog.c ****  *
 181:../User/Src/flashprog.c ****  * @return : FLASH_SECTOR_NOT_IN_RANGE - sector does not overlap with address range
 182:../User/Src/flashprog.c ****  *           FLASH_SECTOR_IN_RANGE - sector overlaps with address range
 183:../User/Src/flashprog.c ****  *
 184:../User/Src/flashprog.c ****  */
 185:../User/Src/flashprog.c **** uint8_t Flash_lCheckPhysicalSectorNumberInRange(uint32_t* ptr_startaddress, uint32_t size_bytes, ui
 186:../User/Src/flashprog.c **** {
 354              	 .loc 2 186 0
 355              	 .cfi_startproc
 356              	 
 357              	 
 358              	 
 359 0000 80B4     	 push {r7}
 360              	.LCFI24:
 361              	 .cfi_def_cfa_offset 4
 362              	 .cfi_offset 7,-4
 363 0002 87B0     	 sub sp,sp,#28
 364              	.LCFI25:
 365              	 .cfi_def_cfa_offset 32
 366 0004 00AF     	 add r7,sp,#0
 367              	.LCFI26:
 368              	 .cfi_def_cfa_register 7
 369 0006 F860     	 str r0,[r7,#12]
 370 0008 B960     	 str r1,[r7,#8]
 371 000a 7A60     	 str r2,[r7,#4]
 187:../User/Src/flashprog.c ****   uint8_t hit=FLASH_SECTOR_NOT_IN_RANGE;
 372              	 .loc 2 187 0
 373 000c 0523     	 movs r3,#5
 374 000e FB75     	 strb r3,[r7,#23]
 188:../User/Src/flashprog.c ****   uint32_t* ptr_endaddress=ptr_startaddress + (size_bytes - 1) / 4;
 375              	 .loc 2 188 0
 376 0010 BB68     	 ldr r3,[r7,#8]
 377 0012 013B     	 subs r3,r3,#1
 378 0014 9B08     	 lsrs r3,r3,#2
 379 0016 9B00     	 lsls r3,r3,#2
 380 0018 FA68     	 ldr r2,[r7,#12]
 381 001a 1344     	 add r3,r3,r2
 382 001c 3B61     	 str r3,[r7,#16]
 189:../User/Src/flashprog.c **** 
 190:../User/Src/flashprog.c ****   /* Check if startaddress is inside physical sector */
 191:../User/Src/flashprog.c ****   if ((ptr_startaddress>=physical_sector_addresses[sector_number]) && (ptr_startaddress<physical_se
 383              	 .loc 2 191 0
 384 001e 1D4A     	 ldr r2,.L25
 385 0020 7B68     	 ldr r3,[r7,#4]
 386 0022 52F82320 	 ldr r2,[r2,r3,lsl#2]
 387 0026 FB68     	 ldr r3,[r7,#12]
 388 0028 9A42     	 cmp r2,r3
 389 002a 09D8     	 bhi .L21
 390              	 .loc 2 191 0 is_stmt 0 discriminator 1
 391 002c 7B68     	 ldr r3,[r7,#4]
 392 002e 0133     	 adds r3,r3,#1
 393 0030 184A     	 ldr r2,.L25
 394 0032 52F82320 	 ldr r2,[r2,r3,lsl#2]
 395 0036 FB68     	 ldr r3,[r7,#12]
 396 0038 9A42     	 cmp r2,r3
 397 003a 01D9     	 bls .L21
 192:../User/Src/flashprog.c ****     hit=FLASH_SECTOR_IN_RANGE;
 398              	 .loc 2 192 0 is_stmt 1
 399 003c 0423     	 movs r3,#4
 400 003e FB75     	 strb r3,[r7,#23]
 401              	.L21:
 193:../User/Src/flashprog.c ****   /* Check if endaddress is inside physical sector */
 194:../User/Src/flashprog.c ****   if ((ptr_endaddress>=physical_sector_addresses[sector_number]) && (ptr_endaddress<physical_sector
 402              	 .loc 2 194 0
 403 0040 144A     	 ldr r2,.L25
 404 0042 7B68     	 ldr r3,[r7,#4]
 405 0044 52F82320 	 ldr r2,[r2,r3,lsl#2]
 406 0048 3B69     	 ldr r3,[r7,#16]
 407 004a 9A42     	 cmp r2,r3
 408 004c 09D8     	 bhi .L22
 409              	 .loc 2 194 0 is_stmt 0 discriminator 1
 410 004e 7B68     	 ldr r3,[r7,#4]
 411 0050 0133     	 adds r3,r3,#1
 412 0052 104A     	 ldr r2,.L25
 413 0054 52F82320 	 ldr r2,[r2,r3,lsl#2]
 414 0058 3B69     	 ldr r3,[r7,#16]
 415 005a 9A42     	 cmp r2,r3
 416 005c 01D9     	 bls .L22
 195:../User/Src/flashprog.c ****     hit=FLASH_SECTOR_IN_RANGE;
 417              	 .loc 2 195 0 is_stmt 1
 418 005e 0423     	 movs r3,#4
 419 0060 FB75     	 strb r3,[r7,#23]
 420              	.L22:
 196:../User/Src/flashprog.c ****   /* Check if complete physical sector is covered by range  */
 197:../User/Src/flashprog.c ****   if ((physical_sector_addresses[sector_number]>=ptr_startaddress) && (physical_sector_addresses[se
 421              	 .loc 2 197 0
 422 0062 0C4A     	 ldr r2,.L25
 423 0064 7B68     	 ldr r3,[r7,#4]
 424 0066 52F82320 	 ldr r2,[r2,r3,lsl#2]
 425 006a FB68     	 ldr r3,[r7,#12]
 426 006c 9A42     	 cmp r2,r3
 427 006e 09D3     	 bcc .L23
 428              	 .loc 2 197 0 is_stmt 0 discriminator 1
 429 0070 7B68     	 ldr r3,[r7,#4]
 430 0072 0133     	 adds r3,r3,#1
 431 0074 074A     	 ldr r2,.L25
 432 0076 52F82320 	 ldr r2,[r2,r3,lsl#2]
 433 007a 3B69     	 ldr r3,[r7,#16]
 434 007c 9A42     	 cmp r2,r3
 435 007e 01D8     	 bhi .L23
 198:../User/Src/flashprog.c ****     hit=FLASH_SECTOR_IN_RANGE;
 436              	 .loc 2 198 0 is_stmt 1
 437 0080 0423     	 movs r3,#4
 438 0082 FB75     	 strb r3,[r7,#23]
 439              	.L23:
 199:../User/Src/flashprog.c **** 
 200:../User/Src/flashprog.c ****   return hit;
 440              	 .loc 2 200 0
 441 0084 FB7D     	 ldrb r3,[r7,#23]
 201:../User/Src/flashprog.c **** }
 442              	 .loc 2 201 0
 443 0086 1846     	 mov r0,r3
 444 0088 1C37     	 adds r7,r7,#28
 445              	.LCFI27:
 446              	 .cfi_def_cfa_offset 4
 447 008a BD46     	 mov sp,r7
 448              	.LCFI28:
 449              	 .cfi_def_cfa_register 13
 450              	 
 451 008c 5DF8047B 	 ldr r7,[sp],#4
 452              	.LCFI29:
 453              	 .cfi_restore 7
 454              	 .cfi_def_cfa_offset 0
 455 0090 7047     	 bx lr
 456              	.L26:
 457 0092 00BF     	 .align 2
 458              	.L25:
 459 0094 00000000 	 .word physical_sector_addresses
 460              	 .cfi_endproc
 461              	.LFE166:
 463              	 .section .text.FLASHPROG_Init,"ax",%progbits
 464              	 .align 2
 465              	 .global FLASHPROG_Init
 466              	 .thumb
 467              	 .thumb_func
 469              	FLASHPROG_Init:
 470              	.LFB167:
 202:../User/Src/flashprog.c **** 
 203:../User/Src/flashprog.c **** /**
 204:../User/Src/flashprog.c ****  * @brief FLASHPROG_Init
 205:../User/Src/flashprog.c ****  *
 206:../User/Src/flashprog.c ****  * Initializes flash programming with flash destination address,
 207:../User/Src/flashprog.c ****  * size of available space inside EEPROM and options (erase before writing and
 208:../User/Src/flashprog.c ****  * check programming)
 209:../User/Src/flashprog.c ****  *
 210:../User/Src/flashprog.c ****  * @input :  dest_address          : ptr to destination data inside flash
 211:../User/Src/flashprog.c ****  *           max_size              : amount of data (bytes) available at destination location
 212:../User/Src/flashprog.c ****  *                                   inside flash
 213:../User/Src/flashprog.c ****  *           erase                 : specifies if physical sectors must be deleted
 214:../User/Src/flashprog.c ****  *                                   before programming starts
 215:../User/Src/flashprog.c ****  *                                   FLASH_OPT_ERASE - no erase executed
 216:../User/Src/flashprog.c ****  *                                   FLASH_OPT_NO_ERASE - erase exectued
 217:../User/Src/flashprog.c ****  *           check_prog            : specifies if content is checked for
 218:../User/Src/flashprog.c ****  *                                   correctness after each page programming
 219:../User/Src/flashprog.c ****  *                                   FLASH_OPT_CHECK - data check enabled
 220:../User/Src/flashprog.c ****  *                                   FLASH_OPT_NO_CHECK - data check disabled
 221:../User/Src/flashprog.c ****  *
 222:../User/Src/flashprog.c ****  * @output : none
 223:../User/Src/flashprog.c ****  *
 224:../User/Src/flashprog.c ****  *
 225:../User/Src/flashprog.c ****  * @return : none
 226:../User/Src/flashprog.c ****  *
 227:../User/Src/flashprog.c ****  */
 228:../User/Src/flashprog.c **** void FLASHPROG_Init(uint32_t* dest_address, uint32_t max_size, uint8_t erase, uint8_t check_prog)
 229:../User/Src/flashprog.c **** {
 471              	 .loc 2 229 0
 472              	 .cfi_startproc
 473              	 
 474              	 
 475              	 
 476 0000 80B4     	 push {r7}
 477              	.LCFI30:
 478              	 .cfi_def_cfa_offset 4
 479              	 .cfi_offset 7,-4
 480 0002 85B0     	 sub sp,sp,#20
 481              	.LCFI31:
 482              	 .cfi_def_cfa_offset 24
 483 0004 00AF     	 add r7,sp,#0
 484              	.LCFI32:
 485              	 .cfi_def_cfa_register 7
 486 0006 F860     	 str r0,[r7,#12]
 487 0008 B960     	 str r1,[r7,#8]
 488 000a 1146     	 mov r1,r2
 489 000c 1A46     	 mov r2,r3
 490 000e 0B46     	 mov r3,r1
 491 0010 FB71     	 strb r3,[r7,#7]
 492 0012 1346     	 mov r3,r2
 493 0014 BB71     	 strb r3,[r7,#6]
 230:../User/Src/flashprog.c ****   gl_flash_write_address = dest_address;
 494              	 .loc 2 230 0
 495 0016 114A     	 ldr r2,.L30
 496 0018 FB68     	 ldr r3,[r7,#12]
 497 001a 1360     	 str r3,[r2]
 231:../User/Src/flashprog.c ****   gl_flash_write_start_address = dest_address;
 498              	 .loc 2 231 0
 499 001c 104A     	 ldr r2,.L30+4
 500 001e FB68     	 ldr r3,[r7,#12]
 501 0020 1360     	 str r3,[r2]
 232:../User/Src/flashprog.c ****   gl_flash_max_size = max_size;
 502              	 .loc 2 232 0
 503 0022 104A     	 ldr r2,.L30+8
 504 0024 BB68     	 ldr r3,[r7,#8]
 505 0026 1360     	 str r3,[r2]
 233:../User/Src/flashprog.c ****   gl_flash_check_prog = check_prog;
 506              	 .loc 2 233 0
 507 0028 0F4A     	 ldr r2,.L30+12
 508 002a BB79     	 ldrb r3,[r7,#6]
 509 002c 1370     	 strb r3,[r2]
 234:../User/Src/flashprog.c ****   gl_flash_bytes_written = 0;
 510              	 .loc 2 234 0
 511 002e 0F4B     	 ldr r3,.L30+16
 512 0030 0022     	 movs r2,#0
 513 0032 1A60     	 str r2,[r3]
 235:../User/Src/flashprog.c ****   if (erase == FLASH_OPT_NO_ERASE)
 514              	 .loc 2 235 0
 515 0034 FB79     	 ldrb r3,[r7,#7]
 516 0036 652B     	 cmp r3,#101
 517 0038 04D1     	 bne .L28
 236:../User/Src/flashprog.c ****     gl_flash_erased = 0xffffU;
 518              	 .loc 2 236 0
 519 003a 0D4B     	 ldr r3,.L30+20
 520 003c 4FF6FF72 	 movw r2,#65535
 521 0040 1A80     	 strh r2,[r3]
 522 0042 02E0     	 b .L29
 523              	.L28:
 237:../User/Src/flashprog.c ****   else
 238:../User/Src/flashprog.c ****     gl_flash_erased = 0U;
 524              	 .loc 2 238 0
 525 0044 0A4B     	 ldr r3,.L30+20
 526 0046 0022     	 movs r2,#0
 527 0048 1A80     	 strh r2,[r3]
 528              	.L29:
 239:../User/Src/flashprog.c ****   gl_flash_page_prep_index = 0U;
 529              	 .loc 2 239 0
 530 004a 0A4B     	 ldr r3,.L30+24
 531 004c 0022     	 movs r2,#0
 532 004e 1A60     	 str r2,[r3]
 240:../User/Src/flashprog.c **** }
 533              	 .loc 2 240 0
 534 0050 1437     	 adds r7,r7,#20
 535              	.LCFI33:
 536              	 .cfi_def_cfa_offset 4
 537 0052 BD46     	 mov sp,r7
 538              	.LCFI34:
 539              	 .cfi_def_cfa_register 13
 540              	 
 541 0054 5DF8047B 	 ldr r7,[sp],#4
 542              	.LCFI35:
 543              	 .cfi_restore 7
 544              	 .cfi_def_cfa_offset 0
 545 0058 7047     	 bx lr
 546              	.L31:
 547 005a 00BF     	 .align 2
 548              	.L30:
 549 005c 00000000 	 .word gl_flash_write_address
 550 0060 00000000 	 .word gl_flash_write_start_address
 551 0064 00000000 	 .word gl_flash_max_size
 552 0068 00000000 	 .word gl_flash_check_prog
 553 006c 00000000 	 .word gl_flash_bytes_written
 554 0070 00000000 	 .word gl_flash_erased
 555 0074 00000000 	 .word gl_flash_page_prep_index
 556              	 .cfi_endproc
 557              	.LFE167:
 559              	 .section .text.FLASHPROG_Data,"ax",%progbits
 560              	 .align 2
 561              	 .global FLASHPROG_Data
 562              	 .thumb
 563              	 .thumb_func
 565              	FLASHPROG_Data:
 566              	.LFB168:
 241:../User/Src/flashprog.c **** 
 242:../User/Src/flashprog.c **** /**
 243:../User/Src/flashprog.c ****  * @brief FLASHPROG_Data
 244:../User/Src/flashprog.c ****  *
 245:../User/Src/flashprog.c ****  * Provides next data for programming flash
 246:../User/Src/flashprog.c ****  *
 247:../User/Src/flashprog.c ****  * @input :  src_data  : ptr to source data
 248:../User/Src/flashprog.c ****  *           size_bytes: amount of data (bytes) available at src location
 249:../User/Src/flashprog.c ****  *
 250:../User/Src/flashprog.c ****  * @output : none
 251:../User/Src/flashprog.c ****  *
 252:../User/Src/flashprog.c ****  * @return : FLASH_FULL_ERROR - no more space left inside destination
 253:../User/Src/flashprog.c ****  *           FLASH_PROG_ERROR - programming error
 254:../User/Src/flashprog.c ****  *
 255:../User/Src/flashprog.c ****  */
 256:../User/Src/flashprog.c **** uint32_t FLASHPROG_Data(void* src_data, uint32_t size_bytes)
 257:../User/Src/flashprog.c **** {
 567              	 .loc 2 257 0
 568              	 .cfi_startproc
 569              	 
 570              	 
 571 0000 80B5     	 push {r7,lr}
 572              	.LCFI36:
 573              	 .cfi_def_cfa_offset 8
 574              	 .cfi_offset 7,-8
 575              	 .cfi_offset 14,-4
 576 0002 88B0     	 sub sp,sp,#32
 577              	.LCFI37:
 578              	 .cfi_def_cfa_offset 40
 579 0004 00AF     	 add r7,sp,#0
 580              	.LCFI38:
 581              	 .cfi_def_cfa_register 7
 582 0006 7860     	 str r0,[r7,#4]
 583 0008 3960     	 str r1,[r7]
 258:../User/Src/flashprog.c ****   uint32_t result = FLASH_OK;
 584              	 .loc 2 258 0
 585 000a 0023     	 movs r3,#0
 586 000c FB61     	 str r3,[r7,#28]
 259:../User/Src/flashprog.c ****   uint32_t bytes_processed = 0;
 587              	 .loc 2 259 0
 588 000e 0023     	 movs r3,#0
 589 0010 BB61     	 str r3,[r7,#24]
 260:../User/Src/flashprog.c **** 
 261:../User/Src/flashprog.c ****   while((size_bytes > bytes_processed) && (result == FLASH_OK))
 590              	 .loc 2 261 0
 591 0012 7EE0     	 b .L33
 592              	.L44:
 262:../User/Src/flashprog.c ****   {
 263:../User/Src/flashprog.c ****     while((gl_flash_page_prep_index < XMC_FLASH_BYTES_PER_PAGE) && (size_bytes > bytes_processed))
 593              	 .loc 2 263 0
 594 0014 0FE0     	 b .L34
 595              	.L36:
 264:../User/Src/flashprog.c ****     {
 265:../User/Src/flashprog.c ****       gl_flash_page_prep[gl_flash_page_prep_index]=((uint8_t*)src_data)[bytes_processed];
 596              	 .loc 2 265 0
 597 0016 454B     	 ldr r3,.L46
 598 0018 1B68     	 ldr r3,[r3]
 599 001a 7968     	 ldr r1,[r7,#4]
 600 001c BA69     	 ldr r2,[r7,#24]
 601 001e 0A44     	 add r2,r2,r1
 602 0020 1178     	 ldrb r1,[r2]
 603 0022 434A     	 ldr r2,.L46+4
 604 0024 D154     	 strb r1,[r2,r3]
 266:../User/Src/flashprog.c ****       bytes_processed+=1;
 605              	 .loc 2 266 0
 606 0026 BB69     	 ldr r3,[r7,#24]
 607 0028 0133     	 adds r3,r3,#1
 608 002a BB61     	 str r3,[r7,#24]
 267:../User/Src/flashprog.c ****       gl_flash_page_prep_index++;
 609              	 .loc 2 267 0
 610 002c 3F4B     	 ldr r3,.L46
 611 002e 1B68     	 ldr r3,[r3]
 612 0030 0133     	 adds r3,r3,#1
 613 0032 3E4A     	 ldr r2,.L46
 614 0034 1360     	 str r3,[r2]
 615              	.L34:
 263:../User/Src/flashprog.c ****     {
 616              	 .loc 2 263 0
 617 0036 3D4B     	 ldr r3,.L46
 618 0038 1B68     	 ldr r3,[r3]
 619 003a FF2B     	 cmp r3,#255
 620 003c 03D8     	 bhi .L35
 263:../User/Src/flashprog.c ****     {
 621              	 .loc 2 263 0 is_stmt 0 discriminator 1
 622 003e 3A68     	 ldr r2,[r7]
 623 0040 BB69     	 ldr r3,[r7,#24]
 624 0042 9A42     	 cmp r2,r3
 625 0044 E7D8     	 bhi .L36
 626              	.L35:
 268:../User/Src/flashprog.c ****     }
 269:../User/Src/flashprog.c **** 
 270:../User/Src/flashprog.c ****     /* Complete page prepared ? */
 271:../User/Src/flashprog.c ****     if (gl_flash_page_prep_index == XMC_FLASH_BYTES_PER_PAGE)
 627              	 .loc 2 271 0 is_stmt 1
 628 0046 394B     	 ldr r3,.L46
 629 0048 1B68     	 ldr r3,[r3]
 630 004a B3F5807F 	 cmp r3,#256
 631 004e 60D1     	 bne .L33
 272:../User/Src/flashprog.c ****     {
 273:../User/Src/flashprog.c ****       if ((gl_flash_bytes_written + XMC_FLASH_BYTES_PER_PAGE) <= gl_flash_max_size)
 632              	 .loc 2 273 0
 633 0050 384B     	 ldr r3,.L46+8
 634 0052 1B68     	 ldr r3,[r3]
 635 0054 03F58072 	 add r2,r3,#256
 636 0058 374B     	 ldr r3,.L46+12
 637 005a 1B68     	 ldr r3,[r3]
 638 005c 9A42     	 cmp r2,r3
 639 005e 56D8     	 bhi .L37
 640              	.LBB2:
 274:../User/Src/flashprog.c ****       {
 275:../User/Src/flashprog.c ****         /* One complete page is prepared; start programming */
 276:../User/Src/flashprog.c **** 
 277:../User/Src/flashprog.c ****         /* Check if physical sector already has been deleted; if not, delete */
 278:../User/Src/flashprog.c ****         uint32_t* PhysicalSector = Flash_lGetPhysicalSector(gl_flash_write_address);
 641              	 .loc 2 278 0
 642 0060 364B     	 ldr r3,.L46+16
 643 0062 1B68     	 ldr r3,[r3]
 644 0064 1846     	 mov r0,r3
 645 0066 FFF7FEFF 	 bl Flash_lGetPhysicalSector
 646 006a 3861     	 str r0,[r7,#16]
 279:../User/Src/flashprog.c ****         uint8_t PhysicalSectorNumber = Flash_lGetPhysicalSectorNumber(PhysicalSector);
 647              	 .loc 2 279 0
 648 006c 3869     	 ldr r0,[r7,#16]
 649 006e FFF7FEFF 	 bl Flash_lGetPhysicalSectorNumber
 650 0072 0346     	 mov r3,r0
 651 0074 FB73     	 strb r3,[r7,#15]
 280:../User/Src/flashprog.c ****         if (!(gl_flash_erased & 1 << PhysicalSectorNumber))
 652              	 .loc 2 280 0
 653 0076 324B     	 ldr r3,.L46+20
 654 0078 1B88     	 ldrh r3,[r3]
 655 007a 1A46     	 mov r2,r3
 656 007c FB7B     	 ldrb r3,[r7,#15]
 657 007e 42FA03F3 	 asr r3,r2,r3
 658 0082 03F00103 	 and r3,r3,#1
 659 0086 002B     	 cmp r3,#0
 660 0088 0FD1     	 bne .L38
 281:../User/Src/flashprog.c ****         {
 282:../User/Src/flashprog.c ****           XMC_FLASH_ErasePhysicalSector(PhysicalSector);
 661              	 .loc 2 282 0
 662 008a 3869     	 ldr r0,[r7,#16]
 663 008c FFF7FEFF 	 bl XMC_FLASH_ErasePhysicalSector
 283:../User/Src/flashprog.c ****           gl_flash_erased |= (1<<PhysicalSectorNumber);
 664              	 .loc 2 283 0
 665 0090 FB7B     	 ldrb r3,[r7,#15]
 666 0092 0122     	 movs r2,#1
 667 0094 02FA03F3 	 lsl r3,r2,r3
 668 0098 9AB2     	 uxth r2,r3
 669 009a 294B     	 ldr r3,.L46+20
 670 009c 1B88     	 ldrh r3,[r3]
 671 009e 9BB2     	 uxth r3,r3
 672 00a0 1343     	 orrs r3,r3,r2
 673 00a2 9BB2     	 uxth r3,r3
 674 00a4 9AB2     	 uxth r2,r3
 675 00a6 264B     	 ldr r3,.L46+20
 676 00a8 1A80     	 strh r2,[r3]
 677              	.L38:
 284:../User/Src/flashprog.c ****         }
 285:../User/Src/flashprog.c **** 
 286:../User/Src/flashprog.c ****         /* Program page */
 287:../User/Src/flashprog.c ****         XMC_FLASH_ProgramPage((void*)gl_flash_write_address,(void*)gl_flash_page_prep);
 678              	 .loc 2 287 0
 679 00aa 244B     	 ldr r3,.L46+16
 680 00ac 1B68     	 ldr r3,[r3]
 681 00ae 1846     	 mov r0,r3
 682 00b0 1F49     	 ldr r1,.L46+4
 683 00b2 FFF7FEFF 	 bl XMC_FLASH_ProgramPage
 288:../User/Src/flashprog.c **** 
 289:../User/Src/flashprog.c ****         /* Check for programming errors */
 290:../User/Src/flashprog.c ****         if (gl_flash_check_prog == FLASH_OPT_CHECK)
 684              	 .loc 2 290 0
 685 00b6 234B     	 ldr r3,.L46+24
 686 00b8 1B78     	 ldrb r3,[r3]
 687 00ba C82B     	 cmp r3,#200
 688 00bc 17D1     	 bne .L39
 689              	.LBB3:
 291:../User/Src/flashprog.c ****         {
 292:../User/Src/flashprog.c ****           for (uint32_t offset = 0; offset < 64; offset ++)
 690              	 .loc 2 292 0
 691 00be 0023     	 movs r3,#0
 692 00c0 7B61     	 str r3,[r7,#20]
 693 00c2 11E0     	 b .L40
 694              	.L42:
 293:../User/Src/flashprog.c ****           {
 294:../User/Src/flashprog.c ****             if ( gl_flash_write_address[offset] != ((uint32_t*)gl_flash_page_prep)[offset] )
 695              	 .loc 2 294 0
 696 00c4 1D4B     	 ldr r3,.L46+16
 697 00c6 1A68     	 ldr r2,[r3]
 698 00c8 7B69     	 ldr r3,[r7,#20]
 699 00ca 9B00     	 lsls r3,r3,#2
 700 00cc 1344     	 add r3,r3,r2
 701 00ce 1A68     	 ldr r2,[r3]
 702 00d0 7B69     	 ldr r3,[r7,#20]
 703 00d2 9B00     	 lsls r3,r3,#2
 704 00d4 1649     	 ldr r1,.L46+4
 705 00d6 0B44     	 add r3,r3,r1
 706 00d8 1B68     	 ldr r3,[r3]
 707 00da 9A42     	 cmp r2,r3
 708 00dc 01D0     	 beq .L41
 295:../User/Src/flashprog.c ****               result = FLASH_PROG_ERROR;
 709              	 .loc 2 295 0
 710 00de 0223     	 movs r3,#2
 711 00e0 FB61     	 str r3,[r7,#28]
 712              	.L41:
 292:../User/Src/flashprog.c ****           {
 713              	 .loc 2 292 0 discriminator 2
 714 00e2 7B69     	 ldr r3,[r7,#20]
 715 00e4 0133     	 adds r3,r3,#1
 716 00e6 7B61     	 str r3,[r7,#20]
 717              	.L40:
 292:../User/Src/flashprog.c ****           {
 718              	 .loc 2 292 0 is_stmt 0 discriminator 1
 719 00e8 7B69     	 ldr r3,[r7,#20]
 720 00ea 3F2B     	 cmp r3,#63
 721 00ec EAD9     	 bls .L42
 722              	.L39:
 723              	.LBE3:
 296:../User/Src/flashprog.c ****           }
 297:../User/Src/flashprog.c ****         }
 298:../User/Src/flashprog.c **** 
 299:../User/Src/flashprog.c ****         gl_flash_write_address = gl_flash_write_address + XMC_FLASH_BYTES_PER_PAGE / 4;
 724              	 .loc 2 299 0 is_stmt 1
 725 00ee 134B     	 ldr r3,.L46+16
 726 00f0 1B68     	 ldr r3,[r3]
 727 00f2 03F58073 	 add r3,r3,#256
 728 00f6 114A     	 ldr r2,.L46+16
 729 00f8 1360     	 str r3,[r2]
 300:../User/Src/flashprog.c ****         gl_flash_bytes_written = gl_flash_bytes_written + XMC_FLASH_BYTES_PER_PAGE;
 730              	 .loc 2 300 0
 731 00fa 0E4B     	 ldr r3,.L46+8
 732 00fc 1B68     	 ldr r3,[r3]
 733 00fe 03F58073 	 add r3,r3,#256
 734 0102 0C4A     	 ldr r2,.L46+8
 735 0104 1360     	 str r3,[r2]
 301:../User/Src/flashprog.c ****         gl_flash_page_prep_index=0;
 736              	 .loc 2 301 0
 737 0106 094B     	 ldr r3,.L46
 738 0108 0022     	 movs r2,#0
 739 010a 1A60     	 str r2,[r3]
 740              	.LBE2:
 741 010c 01E0     	 b .L33
 742              	.L37:
 302:../User/Src/flashprog.c ****       }
 303:../User/Src/flashprog.c ****       else
 304:../User/Src/flashprog.c ****       {
 305:../User/Src/flashprog.c ****         result = FLASH_FULL_ERROR;
 743              	 .loc 2 305 0
 744 010e 0123     	 movs r3,#1
 745 0110 FB61     	 str r3,[r7,#28]
 746              	.L33:
 261:../User/Src/flashprog.c ****   {
 747              	 .loc 2 261 0
 748 0112 3A68     	 ldr r2,[r7]
 749 0114 BB69     	 ldr r3,[r7,#24]
 750 0116 9A42     	 cmp r2,r3
 751 0118 03D9     	 bls .L43
 261:../User/Src/flashprog.c ****   {
 752              	 .loc 2 261 0 is_stmt 0 discriminator 1
 753 011a FB69     	 ldr r3,[r7,#28]
 754 011c 002B     	 cmp r3,#0
 755 011e 3FF479AF 	 beq .L44
 756              	.L43:
 306:../User/Src/flashprog.c ****       }
 307:../User/Src/flashprog.c ****     }
 308:../User/Src/flashprog.c ****   }
 309:../User/Src/flashprog.c ****   return result;
 757              	 .loc 2 309 0 is_stmt 1
 758 0122 FB69     	 ldr r3,[r7,#28]
 310:../User/Src/flashprog.c **** }
 759              	 .loc 2 310 0
 760 0124 1846     	 mov r0,r3
 761 0126 2037     	 adds r7,r7,#32
 762              	.LCFI39:
 763              	 .cfi_def_cfa_offset 8
 764 0128 BD46     	 mov sp,r7
 765              	.LCFI40:
 766              	 .cfi_def_cfa_register 13
 767              	 
 768 012a 80BD     	 pop {r7,pc}
 769              	.L47:
 770              	 .align 2
 771              	.L46:
 772 012c 00000000 	 .word gl_flash_page_prep_index
 773 0130 00000000 	 .word gl_flash_page_prep
 774 0134 00000000 	 .word gl_flash_bytes_written
 775 0138 00000000 	 .word gl_flash_max_size
 776 013c 00000000 	 .word gl_flash_write_address
 777 0140 00000000 	 .word gl_flash_erased
 778 0144 00000000 	 .word gl_flash_check_prog
 779              	 .cfi_endproc
 780              	.LFE168:
 782              	 .section .text.FLASHPROG_Close,"ax",%progbits
 783              	 .align 2
 784              	 .global FLASHPROG_Close
 785              	 .thumb
 786              	 .thumb_func
 788              	FLASHPROG_Close:
 789              	.LFB169:
 311:../User/Src/flashprog.c **** 
 312:../User/Src/flashprog.c **** /**
 313:../User/Src/flashprog.c ****  * @brief FLASHPROG_Close
 314:../User/Src/flashprog.c ****  * Finalize flash programming. Flush remaining data into last page.
 315:../User/Src/flashprog.c ****  *
 316:../User/Src/flashprog.c ****  * @input :  none
 317:../User/Src/flashprog.c ****  *
 318:../User/Src/flashprog.c ****  * @output : none
 319:../User/Src/flashprog.c ****  *
 320:../User/Src/flashprog.c ****  * @return : none
 321:../User/Src/flashprog.c ****  *
 322:../User/Src/flashprog.c ****  */
 323:../User/Src/flashprog.c **** uint32_t FLASHPROG_Close(void)
 324:../User/Src/flashprog.c **** {
 790              	 .loc 2 324 0
 791              	 .cfi_startproc
 792              	 
 793              	 
 794 0000 80B5     	 push {r7,lr}
 795              	.LCFI41:
 796              	 .cfi_def_cfa_offset 8
 797              	 .cfi_offset 7,-8
 798              	 .cfi_offset 14,-4
 799 0002 00AF     	 add r7,sp,#0
 800              	.LCFI42:
 801              	 .cfi_def_cfa_register 7
 325:../User/Src/flashprog.c ****   /* Data remaining in page preparation ? */
 326:../User/Src/flashprog.c ****   if (gl_flash_page_prep_index!=0)
 802              	 .loc 2 326 0
 803 0004 0F4B     	 ldr r3,.L52
 804 0006 1B68     	 ldr r3,[r3]
 805 0008 002B     	 cmp r3,#0
 806 000a 17D0     	 beq .L49
 327:../User/Src/flashprog.c ****   {
 328:../User/Src/flashprog.c ****     if ((gl_flash_bytes_written + 256) < gl_flash_max_size)
 807              	 .loc 2 328 0
 808 000c 0E4B     	 ldr r3,.L52+4
 809 000e 1B68     	 ldr r3,[r3]
 810 0010 03F58072 	 add r2,r3,#256
 811 0014 0D4B     	 ldr r3,.L52+8
 812 0016 1B68     	 ldr r3,[r3]
 813 0018 9A42     	 cmp r2,r3
 814 001a 0DD2     	 bcs .L50
 329:../User/Src/flashprog.c ****     {
 330:../User/Src/flashprog.c ****       /* Programm remaining data */
 331:../User/Src/flashprog.c ****       XMC_FLASH_ProgramPage((void*)gl_flash_write_address,(void*)gl_flash_page_prep);
 815              	 .loc 2 331 0
 816 001c 0C4B     	 ldr r3,.L52+12
 817 001e 1B68     	 ldr r3,[r3]
 818 0020 1846     	 mov r0,r3
 819 0022 0C49     	 ldr r1,.L52+16
 820 0024 FFF7FEFF 	 bl XMC_FLASH_ProgramPage
 332:../User/Src/flashprog.c ****       gl_flash_bytes_written = gl_flash_bytes_written + gl_flash_page_prep_index;
 821              	 .loc 2 332 0
 822 0028 074B     	 ldr r3,.L52+4
 823 002a 1A68     	 ldr r2,[r3]
 824 002c 054B     	 ldr r3,.L52
 825 002e 1B68     	 ldr r3,[r3]
 826 0030 1344     	 add r3,r3,r2
 827 0032 054A     	 ldr r2,.L52+4
 828 0034 1360     	 str r3,[r2]
 829 0036 01E0     	 b .L49
 830              	.L50:
 333:../User/Src/flashprog.c ****     }
 334:../User/Src/flashprog.c ****     else
 335:../User/Src/flashprog.c ****     {
 336:../User/Src/flashprog.c ****       return FLASH_FULL_ERROR;
 831              	 .loc 2 336 0
 832 0038 0123     	 movs r3,#1
 833 003a 00E0     	 b .L51
 834              	.L49:
 337:../User/Src/flashprog.c ****     }
 338:../User/Src/flashprog.c ****   }
 339:../User/Src/flashprog.c ****   return FLASH_OK;
 835              	 .loc 2 339 0
 836 003c 0023     	 movs r3,#0
 837              	.L51:
 340:../User/Src/flashprog.c **** }
 838              	 .loc 2 340 0
 839 003e 1846     	 mov r0,r3
 840 0040 80BD     	 pop {r7,pc}
 841              	.L53:
 842 0042 00BF     	 .align 2
 843              	.L52:
 844 0044 00000000 	 .word gl_flash_page_prep_index
 845 0048 00000000 	 .word gl_flash_bytes_written
 846 004c 00000000 	 .word gl_flash_max_size
 847 0050 00000000 	 .word gl_flash_write_address
 848 0054 00000000 	 .word gl_flash_page_prep
 849              	 .cfi_endproc
 850              	.LFE169:
 852              	 .section .text.FLASHPROG_Delete_physical_sector,"ax",%progbits
 853              	 .align 2
 854              	 .global FLASHPROG_Delete_physical_sector
 855              	 .thumb
 856              	 .thumb_func
 858              	FLASHPROG_Delete_physical_sector:
 859              	.LFB170:
 341:../User/Src/flashprog.c **** 
 342:../User/Src/flashprog.c **** /**
 343:../User/Src/flashprog.c ****  * @brief FLASHPROG_Delete_physical_sector
 344:../User/Src/flashprog.c ****  * Delete physical sector starting with the given start address
 345:../User/Src/flashprog.c ****  *
 346:../User/Src/flashprog.c ****  * @input :  ptr_sector_startaddress : start address of physical section
 347:../User/Src/flashprog.c ****  *
 348:../User/Src/flashprog.c ****  * @output : none
 349:../User/Src/flashprog.c ****  *
 350:../User/Src/flashprog.c ****  * @return : none
 351:../User/Src/flashprog.c ****  *
 352:../User/Src/flashprog.c ****  */
 353:../User/Src/flashprog.c **** void FLASHPROG_Delete_physical_sector(uint32_t* ptr_sector_startaddress)
 354:../User/Src/flashprog.c **** {
 860              	 .loc 2 354 0
 861              	 .cfi_startproc
 862              	 
 863              	 
 864 0000 80B5     	 push {r7,lr}
 865              	.LCFI43:
 866              	 .cfi_def_cfa_offset 8
 867              	 .cfi_offset 7,-8
 868              	 .cfi_offset 14,-4
 869 0002 82B0     	 sub sp,sp,#8
 870              	.LCFI44:
 871              	 .cfi_def_cfa_offset 16
 872 0004 00AF     	 add r7,sp,#0
 873              	.LCFI45:
 874              	 .cfi_def_cfa_register 7
 875 0006 7860     	 str r0,[r7,#4]
 355:../User/Src/flashprog.c ****   XMC_FLASH_ErasePhysicalSector(ptr_sector_startaddress);
 876              	 .loc 2 355 0
 877 0008 7868     	 ldr r0,[r7,#4]
 878 000a FFF7FEFF 	 bl XMC_FLASH_ErasePhysicalSector
 356:../User/Src/flashprog.c **** }
 879              	 .loc 2 356 0
 880 000e 0837     	 adds r7,r7,#8
 881              	.LCFI46:
 882              	 .cfi_def_cfa_offset 8
 883 0010 BD46     	 mov sp,r7
 884              	.LCFI47:
 885              	 .cfi_def_cfa_register 13
 886              	 
 887 0012 80BD     	 pop {r7,pc}
 888              	 .cfi_endproc
 889              	.LFE170:
 891              	 .section .text.FLASHPROG_Delete_physical_sectors,"ax",%progbits
 892              	 .align 2
 893              	 .global FLASHPROG_Delete_physical_sectors
 894              	 .thumb
 895              	 .thumb_func
 897              	FLASHPROG_Delete_physical_sectors:
 898              	.LFB171:
 357:../User/Src/flashprog.c **** 
 358:../User/Src/flashprog.c **** /**
 359:../User/Src/flashprog.c ****  * @brief FLASHPROG_Delete_physical_sectors
 360:../User/Src/flashprog.c ****  * Delete all physical sectors overlapping with the given address range
 361:../User/Src/flashprog.c ****  *
 362:../User/Src/flashprog.c ****  * @input :  ptr_startaddress : start address of range
 363:../User/Src/flashprog.c ****  *           size_bytes       : amount of data (bytes) in range
 364:../User/Src/flashprog.c ****  *
 365:../User/Src/flashprog.c ****  * @output : none
 366:../User/Src/flashprog.c ****  *
 367:../User/Src/flashprog.c ****  * @return : none
 368:../User/Src/flashprog.c ****  *
 369:../User/Src/flashprog.c ****  */
 370:../User/Src/flashprog.c **** void FLASHPROG_Delete_physical_sectors(uint32_t* ptr_startaddress, uint32_t size_bytes)
 371:../User/Src/flashprog.c **** {
 899              	 .loc 2 371 0
 900              	 .cfi_startproc
 901              	 
 902              	 
 903 0000 80B5     	 push {r7,lr}
 904              	.LCFI48:
 905              	 .cfi_def_cfa_offset 8
 906              	 .cfi_offset 7,-8
 907              	 .cfi_offset 14,-4
 908 0002 84B0     	 sub sp,sp,#16
 909              	.LCFI49:
 910              	 .cfi_def_cfa_offset 24
 911 0004 00AF     	 add r7,sp,#0
 912              	.LCFI50:
 913              	 .cfi_def_cfa_register 7
 914 0006 7860     	 str r0,[r7,#4]
 915 0008 3960     	 str r1,[r7]
 372:../User/Src/flashprog.c ****   uint8_t sector_number;
 373:../User/Src/flashprog.c **** 
 374:../User/Src/flashprog.c ****   for (sector_number=0; sector_number<XMC_FLASH_SECTOR_COUNT_MAX; sector_number++)
 916              	 .loc 2 374 0
 917 000a 0023     	 movs r3,#0
 918 000c FB73     	 strb r3,[r7,#15]
 919 000e 13E0     	 b .L56
 920              	.L58:
 375:../User/Src/flashprog.c ****   {
 376:../User/Src/flashprog.c ****     if (Flash_lCheckPhysicalSectorNumberInRange(ptr_startaddress, size_bytes, sector_number)==FLASH
 921              	 .loc 2 376 0
 922 0010 FB7B     	 ldrb r3,[r7,#15]
 923 0012 7868     	 ldr r0,[r7,#4]
 924 0014 3968     	 ldr r1,[r7]
 925 0016 1A46     	 mov r2,r3
 926 0018 FFF7FEFF 	 bl Flash_lCheckPhysicalSectorNumberInRange
 927 001c 0346     	 mov r3,r0
 928 001e 042B     	 cmp r3,#4
 929 0020 07D1     	 bne .L57
 377:../User/Src/flashprog.c ****     {
 378:../User/Src/flashprog.c ****       XMC_FLASH_ErasePhysicalSector(Flash_lGetPhysicalSectorAddress(sector_number));
 930              	 .loc 2 378 0
 931 0022 FB7B     	 ldrb r3,[r7,#15]
 932 0024 1846     	 mov r0,r3
 933 0026 FFF7FEFF 	 bl Flash_lGetPhysicalSectorAddress
 934 002a 0346     	 mov r3,r0
 935 002c 1846     	 mov r0,r3
 936 002e FFF7FEFF 	 bl XMC_FLASH_ErasePhysicalSector
 937              	.L57:
 374:../User/Src/flashprog.c ****   {
 938              	 .loc 2 374 0 discriminator 2
 939 0032 FB7B     	 ldrb r3,[r7,#15]
 940 0034 0133     	 adds r3,r3,#1
 941 0036 FB73     	 strb r3,[r7,#15]
 942              	.L56:
 374:../User/Src/flashprog.c ****   {
 943              	 .loc 2 374 0 is_stmt 0 discriminator 1
 944 0038 FB7B     	 ldrb r3,[r7,#15]
 945 003a 082B     	 cmp r3,#8
 946 003c E8D9     	 bls .L58
 379:../User/Src/flashprog.c ****     }
 380:../User/Src/flashprog.c ****   }
 381:../User/Src/flashprog.c **** }
 947              	 .loc 2 381 0 is_stmt 1
 948 003e 1037     	 adds r7,r7,#16
 949              	.LCFI51:
 950              	 .cfi_def_cfa_offset 8
 951 0040 BD46     	 mov sp,r7
 952              	.LCFI52:
 953              	 .cfi_def_cfa_register 13
 954              	 
 955 0042 80BD     	 pop {r7,pc}
 956              	 .cfi_endproc
 957              	.LFE171:
 959              	 .section .text.FLASHPROG_Bytes_written,"ax",%progbits
 960              	 .align 2
 961              	 .global FLASHPROG_Bytes_written
 962              	 .thumb
 963              	 .thumb_func
 965              	FLASHPROG_Bytes_written:
 966              	.LFB172:
 382:../User/Src/flashprog.c **** 
 383:../User/Src/flashprog.c **** /**
 384:../User/Src/flashprog.c ****  * @brief FLASHPROG_Bytes_written
 385:../User/Src/flashprog.c ****  * Returns amount of data written to flash
 386:../User/Src/flashprog.c ****  *
 387:../User/Src/flashprog.c ****  * @input :  none
 388:../User/Src/flashprog.c ****  *
 389:../User/Src/flashprog.c ****  * @output : none
 390:../User/Src/flashprog.c ****  *
 391:../User/Src/flashprog.c ****  * @return : number of bytes written
 392:../User/Src/flashprog.c ****  *
 393:../User/Src/flashprog.c ****  */
 394:../User/Src/flashprog.c **** uint32_t FLASHPROG_Bytes_written(void)
 395:../User/Src/flashprog.c **** {
 967              	 .loc 2 395 0
 968              	 .cfi_startproc
 969              	 
 970              	 
 971              	 
 972 0000 80B4     	 push {r7}
 973              	.LCFI53:
 974              	 .cfi_def_cfa_offset 4
 975              	 .cfi_offset 7,-4
 976 0002 00AF     	 add r7,sp,#0
 977              	.LCFI54:
 978              	 .cfi_def_cfa_register 7
 396:../User/Src/flashprog.c ****   return gl_flash_bytes_written;
 979              	 .loc 2 396 0
 980 0004 034B     	 ldr r3,.L61
 981 0006 1B68     	 ldr r3,[r3]
 397:../User/Src/flashprog.c **** }
 982              	 .loc 2 397 0
 983 0008 1846     	 mov r0,r3
 984 000a BD46     	 mov sp,r7
 985              	.LCFI55:
 986              	 .cfi_def_cfa_register 13
 987              	 
 988 000c 5DF8047B 	 ldr r7,[sp],#4
 989              	.LCFI56:
 990              	 .cfi_restore 7
 991              	 .cfi_def_cfa_offset 0
 992 0010 7047     	 bx lr
 993              	.L62:
 994 0012 00BF     	 .align 2
 995              	.L61:
 996 0014 00000000 	 .word gl_flash_bytes_written
 997              	 .cfi_endproc
 998              	.LFE172:
 1000              	 .section .text.FLASHPROG_CRC32_check,"ax",%progbits
 1001              	 .align 2
 1002              	 .global FLASHPROG_CRC32_check
 1003              	 .thumb
 1004              	 .thumb_func
 1006              	FLASHPROG_CRC32_check:
 1007              	.LFB173:
 398:../User/Src/flashprog.c **** 
 399:../User/Src/flashprog.c **** /**
 400:../User/Src/flashprog.c ****  * @brief FLASHPROG_CRC32_check
 401:../User/Src/flashprog.c ****  * CRC32 check of data programmed into address range.
 402:../User/Src/flashprog.c ****  * Last word inside the range is expected to carry CRC32.
 403:../User/Src/flashprog.c ****  *
 404:../User/Src/flashprog.c ****  * @input :  ptr_startaddress : start address of
 405:../User/Src/flashprog.c ****  *           size_bytes       : amount of data (bytes)
 406:../User/Src/flashprog.c ****  *
 407:../User/Src/flashprog.c ****  * @output : none
 408:../User/Src/flashprog.c ****  *
 409:../User/Src/flashprog.c ****  * @return : FLASH_OK - CRC32 check is ok
 410:../User/Src/flashprog.c ****  *           FLAHS_CRC_ERROR - CRC32 check failed
 411:../User/Src/flashprog.c ****  *
 412:../User/Src/flashprog.c ****  */
 413:../User/Src/flashprog.c **** uint32_t FLASHPROG_CRC32_check(uint32_t* ptr_startaddress, uint32_t size_bytes)
 414:../User/Src/flashprog.c **** {
 1008              	 .loc 2 414 0
 1009              	 .cfi_startproc
 1010              	 
 1011              	 
 1012 0000 80B5     	 push {r7,lr}
 1013              	.LCFI57:
 1014              	 .cfi_def_cfa_offset 8
 1015              	 .cfi_offset 7,-8
 1016              	 .cfi_offset 14,-4
 1017 0002 86B0     	 sub sp,sp,#24
 1018              	.LCFI58:
 1019              	 .cfi_def_cfa_offset 32
 1020 0004 00AF     	 add r7,sp,#0
 1021              	.LCFI59:
 1022              	 .cfi_def_cfa_register 7
 1023 0006 7860     	 str r0,[r7,#4]
 1024 0008 3960     	 str r1,[r7]
 415:../User/Src/flashprog.c ****   uint32_t crc32_result;
 416:../User/Src/flashprog.c ****   uint32_t crc32_expected;
 417:../User/Src/flashprog.c ****   XMC_FCE_STATUS_t fce_status;
 418:../User/Src/flashprog.c **** 
 419:../User/Src/flashprog.c ****   XMC_FCE_Enable();
 1025              	 .loc 2 419 0
 1026 000a FFF7FEFF 	 bl XMC_FCE_Enable
 420:../User/Src/flashprog.c ****   XMC_FCE_Init(&FCE_config0);
 1027              	 .loc 2 420 0
 1028 000e 1548     	 ldr r0,.L67
 1029 0010 FFF7FEFF 	 bl XMC_FCE_Init
 421:../User/Src/flashprog.c ****   fce_status = XMC_FCE_CalculateCRC32(&FCE_config0,  ptr_startaddress, size_bytes - 4, &crc32_resul
 1030              	 .loc 2 421 0
 1031 0014 3B68     	 ldr r3,[r7]
 1032 0016 1A1F     	 subs r2,r3,#4
 1033 0018 07F10C03 	 add r3,r7,#12
 1034 001c 1148     	 ldr r0,.L67
 1035 001e 7968     	 ldr r1,[r7,#4]
 1036 0020 FFF7FEFF 	 bl XMC_FCE_CalculateCRC32
 1037 0024 0346     	 mov r3,r0
 1038 0026 FB75     	 strb r3,[r7,#23]
 422:../User/Src/flashprog.c ****   XMC_FCE_GetCRCResult(&FCE_config0, &crc32_result);
 1039              	 .loc 2 422 0
 1040 0028 07F10C03 	 add r3,r7,#12
 1041 002c 0D48     	 ldr r0,.L67
 1042 002e 1946     	 mov r1,r3
 1043 0030 FFF7FEFF 	 bl XMC_FCE_GetCRCResult
 423:../User/Src/flashprog.c ****   if (fce_status == XMC_FCE_STATUS_OK)
 1044              	 .loc 2 423 0
 1045 0034 FB7D     	 ldrb r3,[r7,#23]
 1046 0036 002B     	 cmp r3,#0
 1047 0038 0FD1     	 bne .L64
 424:../User/Src/flashprog.c ****   {
 425:../User/Src/flashprog.c ****     crc32_expected = *(ptr_startaddress + size_bytes/4 - 1);
 1048              	 .loc 2 425 0
 1049 003a 3B68     	 ldr r3,[r7]
 1050 003c 9B08     	 lsrs r3,r3,#2
 1051 003e 03F18043 	 add r3,r3,#1073741824
 1052 0042 013B     	 subs r3,r3,#1
 1053 0044 9B00     	 lsls r3,r3,#2
 1054 0046 7A68     	 ldr r2,[r7,#4]
 1055 0048 1344     	 add r3,r3,r2
 1056 004a 1B68     	 ldr r3,[r3]
 1057 004c 3B61     	 str r3,[r7,#16]
 426:../User/Src/flashprog.c ****     if (crc32_result != crc32_expected)
 1058              	 .loc 2 426 0
 1059 004e FA68     	 ldr r2,[r7,#12]
 1060 0050 3B69     	 ldr r3,[r7,#16]
 1061 0052 9A42     	 cmp r2,r3
 1062 0054 01D0     	 beq .L64
 427:../User/Src/flashprog.c ****     {
 428:../User/Src/flashprog.c ****       return FLASH_CRC_ERROR;
 1063              	 .loc 2 428 0
 1064 0056 0323     	 movs r3,#3
 1065 0058 00E0     	 b .L66
 1066              	.L64:
 429:../User/Src/flashprog.c ****     }
 430:../User/Src/flashprog.c ****   }
 431:../User/Src/flashprog.c ****   return FLASH_OK;
 1067              	 .loc 2 431 0
 1068 005a 0023     	 movs r3,#0
 1069              	.L66:
 432:../User/Src/flashprog.c **** }
 1070              	 .loc 2 432 0 discriminator 1
 1071 005c 1846     	 mov r0,r3
 1072 005e 1837     	 adds r7,r7,#24
 1073              	.LCFI60:
 1074              	 .cfi_def_cfa_offset 8
 1075 0060 BD46     	 mov sp,r7
 1076              	.LCFI61:
 1077              	 .cfi_def_cfa_register 13
 1078              	 
 1079 0062 80BD     	 pop {r7,pc}
 1080              	.L68:
 1081              	 .align 2
 1082              	.L67:
 1083 0064 00000000 	 .word FCE_config0
 1084              	 .cfi_endproc
 1085              	.LFE173:
 1087              	 .text
 1088              	.Letext0:
 1089              	 .file 3 "d:\\infineon\\tools\\dave ide\\4.5.0.202105191637\\eclipse\\arm-gcc-49\\arm-none-eabi\\include\\machine\\_default_types.h"
 1090              	 .file 4 "d:\\infineon\\tools\\dave ide\\4.5.0.202105191637\\eclipse\\arm-gcc-49\\arm-none-eabi\\include\\stdint.h"
 1091              	 .file 5 "D:/Infineon/Tools/DAVE IDE/4.5.0.202105191637/eclipse/workspace/XMC4300-app/Libraries/CMSIS/Infineon/XMC4300_series/Include/XMC4300.h"
 1092              	 .file 6 "D:/Infineon/Tools/DAVE IDE/4.5.0.202105191637/eclipse/workspace/XMC4300-app/Libraries/CMSIS/Include/cmsis_gcc.h"
 1093              	 .file 7 "D:/Infineon/Tools/DAVE IDE/4.5.0.202105191637/eclipse/workspace/XMC4300-app/Libraries/CMSIS/Include/core_cm4.h"
DEFINED SYMBOLS
                            *ABS*:00000000 flashprog.c
    {standard input}:20     .text.XMC_FCE_GetCRCResult:00000000 $t
    {standard input}:24     .text.XMC_FCE_GetCRCResult:00000000 XMC_FCE_GetCRCResult
    {standard input}:71     .data.physical_sector_addresses:00000000 physical_sector_addresses
    {standard input}:68     .data.physical_sector_addresses:00000000 $d
    {standard input}:83     .data.FCE_config0:00000000 $d
    {standard input}:86     .data.FCE_config0:00000000 FCE_config0
    {standard input}:93     .bss.gl_flash_write_address:00000000 $d
    {standard input}:96     .bss.gl_flash_write_address:00000000 gl_flash_write_address
    {standard input}:99     .bss.gl_flash_write_start_address:00000000 $d
    {standard input}:102    .bss.gl_flash_write_start_address:00000000 gl_flash_write_start_address
    {standard input}:105    .bss.gl_flash_bytes_written:00000000 $d
    {standard input}:108    .bss.gl_flash_bytes_written:00000000 gl_flash_bytes_written
    {standard input}:113    .bss.gl_flash_check_prog:00000000 gl_flash_check_prog
    {standard input}:114    .bss.gl_flash_check_prog:00000000 $d
    {standard input}:116    .bss.gl_flash_erased:00000000 $d
    {standard input}:119    .bss.gl_flash_erased:00000000 gl_flash_erased
    {standard input}:122    .bss.gl_flash_max_size:00000000 $d
    {standard input}:125    .bss.gl_flash_max_size:00000000 gl_flash_max_size
    {standard input}:128    .bss.gl_flash_page_prep:00000000 $d
    {standard input}:131    .bss.gl_flash_page_prep:00000000 gl_flash_page_prep
    {standard input}:134    .bss.gl_flash_page_prep_index:00000000 $d
    {standard input}:137    .bss.gl_flash_page_prep_index:00000000 gl_flash_page_prep_index
    {standard input}:140    .text.Flash_lGetPhysicalSector:00000000 $t
    {standard input}:145    .text.Flash_lGetPhysicalSector:00000000 Flash_lGetPhysicalSector
    {standard input}:219    .text.Flash_lGetPhysicalSector:00000050 $d
    {standard input}:224    .text.Flash_lGetPhysicalSectorNumber:00000000 $t
    {standard input}:229    .text.Flash_lGetPhysicalSectorNumber:00000000 Flash_lGetPhysicalSectorNumber
    {standard input}:292    .text.Flash_lGetPhysicalSectorNumber:0000003c $d
    {standard input}:297    .text.Flash_lGetPhysicalSectorAddress:00000000 $t
    {standard input}:302    .text.Flash_lGetPhysicalSectorAddress:00000000 Flash_lGetPhysicalSectorAddress
    {standard input}:342    .text.Flash_lGetPhysicalSectorAddress:00000020 $d
    {standard input}:347    .text.Flash_lCheckPhysicalSectorNumberInRange:00000000 $t
    {standard input}:352    .text.Flash_lCheckPhysicalSectorNumberInRange:00000000 Flash_lCheckPhysicalSectorNumberInRange
    {standard input}:459    .text.Flash_lCheckPhysicalSectorNumberInRange:00000094 $d
    {standard input}:464    .text.FLASHPROG_Init:00000000 $t
    {standard input}:469    .text.FLASHPROG_Init:00000000 FLASHPROG_Init
    {standard input}:549    .text.FLASHPROG_Init:0000005c $d
    {standard input}:560    .text.FLASHPROG_Data:00000000 $t
    {standard input}:565    .text.FLASHPROG_Data:00000000 FLASHPROG_Data
    {standard input}:772    .text.FLASHPROG_Data:0000012c $d
    {standard input}:783    .text.FLASHPROG_Close:00000000 $t
    {standard input}:788    .text.FLASHPROG_Close:00000000 FLASHPROG_Close
    {standard input}:844    .text.FLASHPROG_Close:00000044 $d
    {standard input}:853    .text.FLASHPROG_Delete_physical_sector:00000000 $t
    {standard input}:858    .text.FLASHPROG_Delete_physical_sector:00000000 FLASHPROG_Delete_physical_sector
    {standard input}:892    .text.FLASHPROG_Delete_physical_sectors:00000000 $t
    {standard input}:897    .text.FLASHPROG_Delete_physical_sectors:00000000 FLASHPROG_Delete_physical_sectors
    {standard input}:960    .text.FLASHPROG_Bytes_written:00000000 $t
    {standard input}:965    .text.FLASHPROG_Bytes_written:00000000 FLASHPROG_Bytes_written
    {standard input}:996    .text.FLASHPROG_Bytes_written:00000014 $d
    {standard input}:1001   .text.FLASHPROG_CRC32_check:00000000 $t
    {standard input}:1006   .text.FLASHPROG_CRC32_check:00000000 FLASHPROG_CRC32_check
    {standard input}:1083   .text.FLASHPROG_CRC32_check:00000064 $d
                     .debug_frame:00000010 $d

UNDEFINED SYMBOLS
XMC_FLASH_ErasePhysicalSector
XMC_FLASH_ProgramPage
XMC_FCE_Enable
XMC_FCE_Init
XMC_FCE_CalculateCRC32
