   1              	 .syntax unified
   2              	 .cpu cortex-m4
   3              	 .eabi_attribute 27,3
   4              	 .fpu fpv4-sp-d16
   5              	 .eabi_attribute 20,1
   6              	 .eabi_attribute 21,1
   7              	 .eabi_attribute 23,3
   8              	 .eabi_attribute 24,1
   9              	 .eabi_attribute 25,1
  10              	 .eabi_attribute 26,1
  11              	 .eabi_attribute 30,6
  12              	 .eabi_attribute 34,1
  13              	 .eabi_attribute 18,4
  14              	 .thumb
  15              	 .file "ryhand.c"
  16              	 .text
  17              	.Ltext0:
  18              	 .cfi_sections .debug_frame
  19              	 .global Rxpdo16Mapping0x1600
  20              	 .section .data.Rxpdo16Mapping0x1600,"aw",%progbits
  21              	 .align 2
  24              	Rxpdo16Mapping0x1600:
  25 0000 2000     	 .short 32
  26 0002 0000     	 .space 2
  27 0004 10010070 	 .word 1879048464
  28 0008 C0020070 	 .word 1879048896
  29 000c 10030070 	 .word 1879048976
  30 0010 C0040070 	 .word 1879049408
  31 0014 10050070 	 .word 1879049488
  32 0018 C0060070 	 .word 1879049920
  33 001c 10070070 	 .word 1879050000
  34 0020 C0080070 	 .word 1879050432
  35 0024 10090070 	 .word 1879050512
  36 0028 C00A0070 	 .word 1879050944
  37 002c 100B0070 	 .word 1879051024
  38 0030 C00C0070 	 .word 1879051456
  39 0034 100D0070 	 .word 1879051536
  40 0038 C00E0070 	 .word 1879051968
  41 003c 100F0070 	 .word 1879052048
  42 0040 C0100070 	 .word 1879052480
  43 0044 10110070 	 .word 1879052560
  44 0048 C0120070 	 .word 1879052992
  45 004c 10130070 	 .word 1879053072
  46 0050 C0140070 	 .word 1879053504
  47 0054 10150070 	 .word 1879053584
  48 0058 C0160070 	 .word 1879054016
  49 005c 10170070 	 .word 1879054096
  50 0060 C0180070 	 .word 1879054528
  51 0064 10190070 	 .word 1879054608
  52 0068 C01A0070 	 .word 1879055040
  53 006c 101B0070 	 .word 1879055120
  54 0070 C01C0070 	 .word 1879055552
  55 0074 101D0070 	 .word 1879055632
  56 0078 C01E0070 	 .word 1879056064
  57 007c 101F0070 	 .word 1879056144
  58 0080 C0200070 	 .word 1879056576
  59              	 .global Rxpdo6Mapping0x1601
  60              	 .section .data.Rxpdo6Mapping0x1601,"aw",%progbits
  61              	 .align 2
  64              	Rxpdo6Mapping0x1601:
  65 0000 0C00     	 .short 12
  66 0002 0000     	 .space 2
  67 0004 10011070 	 .word 1880097040
  68 0008 C0021070 	 .word 1880097472
  69 000c 10031070 	 .word 1880097552
  70 0010 C0041070 	 .word 1880097984
  71 0014 10051070 	 .word 1880098064
  72 0018 C0061070 	 .word 1880098496
  73 001c 10071070 	 .word 1880098576
  74 0020 C0081070 	 .word 1880099008
  75 0024 10091070 	 .word 1880099088
  76 0028 C00A1070 	 .word 1880099520
  77 002c 100B1070 	 .word 1880099600
  78 0030 C00C1070 	 .word 1880100032
  79              	 .global RxpdoTSMapping0x1602
  80              	 .section .data.RxpdoTSMapping0x1602,"aw",%progbits
  81              	 .align 2
  84              	RxpdoTSMapping0x1602:
  85 0000 0C00     	 .short 12
  86 0002 0000     	 .space 2
  87 0004 10012070 	 .word 1881145616
  88 0008 C0022070 	 .word 1881146048
  89 000c 10032070 	 .word 1881146128
  90 0010 C0042070 	 .word 1881146560
  91 0014 10052070 	 .word 1881146640
  92 0018 C0062070 	 .word 1881147072
  93 001c 10072070 	 .word 1881147152
  94 0020 C0082070 	 .word 1881147584
  95 0024 10092070 	 .word 1881147664
  96 0028 C00A2070 	 .word 1881148096
  97 002c 100B2070 	 .word 1881148176
  98 0030 C00C2070 	 .word 1881148608
  99              	 .global Txpdo16Mapping0x1A00
 100              	 .section .data.Txpdo16Mapping0x1A00,"aw",%progbits
 101              	 .align 2
 104              	Txpdo16Mapping0x1A00:
 105 0000 2000     	 .short 32
 106 0002 0000     	 .space 2
 107 0004 10010060 	 .word 1610613008
 108 0008 C0020060 	 .word 1610613440
 109 000c 10030060 	 .word 1610613520
 110 0010 C0040060 	 .word 1610613952
 111 0014 10050060 	 .word 1610614032
 112 0018 C0060060 	 .word 1610614464
 113 001c 10070060 	 .word 1610614544
 114 0020 C0080060 	 .word 1610614976
 115 0024 10090060 	 .word 1610615056
 116 0028 C00A0060 	 .word 1610615488
 117 002c 100B0060 	 .word 1610615568
 118 0030 C00C0060 	 .word 1610616000
 119 0034 100D0060 	 .word 1610616080
 120 0038 C00E0060 	 .word 1610616512
 121 003c 100F0060 	 .word 1610616592
 122 0040 C0100060 	 .word 1610617024
 123 0044 10110060 	 .word 1610617104
 124 0048 C0120060 	 .word 1610617536
 125 004c 10130060 	 .word 1610617616
 126 0050 C0140060 	 .word 1610618048
 127 0054 10150060 	 .word 1610618128
 128 0058 C0160060 	 .word 1610618560
 129 005c 10170060 	 .word 1610618640
 130 0060 C0180060 	 .word 1610619072
 131 0064 10190060 	 .word 1610619152
 132 0068 C01A0060 	 .word 1610619584
 133 006c 101B0060 	 .word 1610619664
 134 0070 C01C0060 	 .word 1610620096
 135 0074 101D0060 	 .word 1610620176
 136 0078 C01E0060 	 .word 1610620608
 137 007c 101F0060 	 .word 1610620688
 138 0080 C0200060 	 .word 1610621120
 139              	 .global Txpdo6Mapping0x1A01
 140              	 .section .data.Txpdo6Mapping0x1A01,"aw",%progbits
 141              	 .align 2
 144              	Txpdo6Mapping0x1A01:
 145 0000 0C00     	 .short 12
 146 0002 0000     	 .space 2
 147 0004 10011060 	 .word 1611661584
 148 0008 C0021060 	 .word 1611662016
 149 000c 10031060 	 .word 1611662096
 150 0010 C0041060 	 .word 1611662528
 151 0014 10051060 	 .word 1611662608
 152 0018 C0061060 	 .word 1611663040
 153 001c 10071060 	 .word 1611663120
 154 0020 C0081060 	 .word 1611663552
 155 0024 10091060 	 .word 1611663632
 156 0028 C00A1060 	 .word 1611664064
 157 002c 100B1060 	 .word 1611664144
 158 0030 C00C1060 	 .word 1611664576
 159              	 .global TxpdoTSMapping0x1A02
 160              	 .section .data.TxpdoTSMapping0x1A02,"aw",%progbits
 161              	 .align 2
 164              	TxpdoTSMapping0x1A02:
 165 0000 0C00     	 .short 12
 166 0002 0000     	 .space 2
 167 0004 10012060 	 .word 1612710160
 168 0008 C0022060 	 .word 1612710592
 169 000c 10032060 	 .word 1612710672
 170 0010 C0042060 	 .word 1612711104
 171 0014 10052060 	 .word 1612711184
 172 0018 C0062060 	 .word 1612711616
 173 001c 10072060 	 .word 1612711696
 174 0020 C0082060 	 .word 1612712128
 175 0024 10092060 	 .word 1612712208
 176 0028 C00A2060 	 .word 1612712640
 177 002c 100B2060 	 .word 1612712720
 178 0030 C00C2060 	 .word 1612713152
 179              	 .global sRxPDOassign
 180              	 .section .data.sRxPDOassign,"aw",%progbits
 181              	 .align 2
 184              	sRxPDOassign:
 185 0000 0300     	 .short 3
 186 0002 0016     	 .short 5632
 187 0004 0116     	 .short 5633
 188 0006 0216     	 .short 5634
 189              	 .global sTxPDOassign
 190              	 .section .data.sTxPDOassign,"aw",%progbits
 191              	 .align 2
 194              	sTxPDOassign:
 195 0000 0300     	 .short 3
 196 0002 001A     	 .short 6656
 197 0004 011A     	 .short 6657
 198 0006 021A     	 .short 6658
 199              	 .global Txpdo160x6000
 200              	 .section .data.Txpdo160x6000,"aw",%progbits
 201              	 .align 2
 204              	Txpdo160x6000:
 205 0000 2000     	 .short 32
 206 0002 0000     	 .short 0
 207 0004 00000000 	 .ascii "\000\000\000\000\000\000\000\000\000\000\000\000\000"
 207      00000000 
 207      00000000 
 207      00
 208 0011 00000000 	 .ascii "\000\000\000\000\000\000\000\000\000\000\000"
 208      00000000 
 208      000000
 209 001c 0000     	 .short 0
 210 001e 00000000 	 .ascii "\000\000\000\000\000\000\000\000\000\000\000\000\000"
 210      00000000 
 210      00000000 
 210      00
 211 002b 00000000 	 .ascii "\000\000\000\000\000\000\000\000\000\000\000"
 211      00000000 
 211      000000
 212 0036 0000     	 .short 0
 213 0038 00000000 	 .ascii "\000\000\000\000\000\000\000\000\000\000\000\000\000"
 213      00000000 
 213      00000000 
 213      00
 214 0045 00000000 	 .ascii "\000\000\000\000\000\000\000\000\000\000\000"
 214      00000000 
 214      000000
 215 0050 0000     	 .short 0
 216 0052 00000000 	 .ascii "\000\000\000\000\000\000\000\000\000\000\000\000\000"
 216      00000000 
 216      00000000 
 216      00
 217 005f 00000000 	 .ascii "\000\000\000\000\000\000\000\000\000\000\000"
 217      00000000 
 217      000000
 218 006a 0000     	 .short 0
 219 006c 00000000 	 .ascii "\000\000\000\000\000\000\000\000\000\000\000\000\000"
 219      00000000 
 219      00000000 
 219      00
 220 0079 00000000 	 .ascii "\000\000\000\000\000\000\000\000\000\000\000"
 220      00000000 
 220      000000
 221 0084 0000     	 .short 0
 222 0086 00000000 	 .ascii "\000\000\000\000\000\000\000\000\000\000\000\000\000"
 222      00000000 
 222      00000000 
 222      00
 223 0093 00000000 	 .ascii "\000\000\000\000\000\000\000\000\000\000\000"
 223      00000000 
 223      000000
 224 009e 0000     	 .short 0
 225 00a0 00000000 	 .ascii "\000\000\000\000\000\000\000\000\000\000\000\000\000"
 225      00000000 
 225      00000000 
 225      00
 226 00ad 00000000 	 .ascii "\000\000\000\000\000\000\000\000\000\000\000"
 226      00000000 
 226      000000
 227 00b8 0000     	 .short 0
 228 00ba 00000000 	 .ascii "\000\000\000\000\000\000\000\000\000\000\000\000\000"
 228      00000000 
 228      00000000 
 228      00
 229 00c7 00000000 	 .ascii "\000\000\000\000\000\000\000\000\000\000\000"
 229      00000000 
 229      000000
 230 00d2 0000     	 .short 0
 231 00d4 00000000 	 .ascii "\000\000\000\000\000\000\000\000\000\000\000\000\000"
 231      00000000 
 231      00000000 
 231      00
 232 00e1 00000000 	 .ascii "\000\000\000\000\000\000\000\000\000\000\000"
 232      00000000 
 232      000000
 233 00ec 0000     	 .short 0
 234 00ee 00000000 	 .ascii "\000\000\000\000\000\000\000\000\000\000\000\000\000"
 234      00000000 
 234      00000000 
 234      00
 235 00fb 00000000 	 .ascii "\000\000\000\000\000\000\000\000\000\000\000"
 235      00000000 
 235      000000
 236 0106 0000     	 .short 0
 237 0108 00000000 	 .ascii "\000\000\000\000\000\000\000\000\000\000\000\000\000"
 237      00000000 
 237      00000000 
 237      00
 238 0115 00000000 	 .ascii "\000\000\000\000\000\000\000\000\000\000\000"
 238      00000000 
 238      000000
 239 0120 0000     	 .short 0
 240 0122 00000000 	 .ascii "\000\000\000\000\000\000\000\000\000\000\000\000\000"
 240      00000000 
 240      00000000 
 240      00
 241 012f 00000000 	 .ascii "\000\000\000\000\000\000\000\000\000\000\000"
 241      00000000 
 241      000000
 242 013a 0000     	 .short 0
 243 013c 00000000 	 .ascii "\000\000\000\000\000\000\000\000\000\000\000\000\000"
 243      00000000 
 243      00000000 
 243      00
 244 0149 00000000 	 .ascii "\000\000\000\000\000\000\000\000\000\000\000"
 244      00000000 
 244      000000
 245 0154 0000     	 .short 0
 246 0156 00000000 	 .ascii "\000\000\000\000\000\000\000\000\000\000\000\000\000"
 246      00000000 
 246      00000000 
 246      00
 247 0163 00000000 	 .ascii "\000\000\000\000\000\000\000\000\000\000\000"
 247      00000000 
 247      000000
 248 016e 0000     	 .short 0
 249 0170 00000000 	 .ascii "\000\000\000\000\000\000\000\000\000\000\000\000\000"
 249      00000000 
 249      00000000 
 249      00
 250 017d 00000000 	 .ascii "\000\000\000\000\000\000\000\000\000\000\000"
 250      00000000 
 250      000000
 251 0188 0000     	 .short 0
 252 018a 00000000 	 .ascii "\000\000\000\000\000\000\000\000\000\000\000\000\000"
 252      00000000 
 252      00000000 
 252      00
 253 0197 00000000 	 .ascii "\000\000\000\000\000\000\000\000\000\000\000"
 253      00000000 
 253      000000
 254              	 .global Txpdo60x6010
 255 01a2 0000     	 .section .data.Txpdo60x6010,"aw",%progbits
 256              	 .align 2
 259              	Txpdo60x6010:
 260 0000 0C00     	 .short 12
 261 0002 0000     	 .short 0
 262 0004 00000000 	 .ascii "\000\000\000\000\000\000\000\000\000\000\000\000\000"
 262      00000000 
 262      00000000 
 262      00
 263 0011 00000000 	 .ascii "\000\000\000\000\000\000\000\000\000\000\000"
 263      00000000 
 263      000000
 264 001c 0000     	 .short 0
 265 001e 00000000 	 .ascii "\000\000\000\000\000\000\000\000\000\000\000\000\000"
 265      00000000 
 265      00000000 
 265      00
 266 002b 00000000 	 .ascii "\000\000\000\000\000\000\000\000\000\000\000"
 266      00000000 
 266      000000
 267 0036 0000     	 .short 0
 268 0038 00000000 	 .ascii "\000\000\000\000\000\000\000\000\000\000\000\000\000"
 268      00000000 
 268      00000000 
 268      00
 269 0045 00000000 	 .ascii "\000\000\000\000\000\000\000\000\000\000\000"
 269      00000000 
 269      000000
 270 0050 0000     	 .short 0
 271 0052 00000000 	 .ascii "\000\000\000\000\000\000\000\000\000\000\000\000\000"
 271      00000000 
 271      00000000 
 271      00
 272 005f 00000000 	 .ascii "\000\000\000\000\000\000\000\000\000\000\000"
 272      00000000 
 272      000000
 273 006a 0000     	 .short 0
 274 006c 00000000 	 .ascii "\000\000\000\000\000\000\000\000\000\000\000\000\000"
 274      00000000 
 274      00000000 
 274      00
 275 0079 00000000 	 .ascii "\000\000\000\000\000\000\000\000\000\000\000"
 275      00000000 
 275      000000
 276 0084 0000     	 .short 0
 277 0086 00000000 	 .ascii "\000\000\000\000\000\000\000\000\000\000\000\000\000"
 277      00000000 
 277      00000000 
 277      00
 278 0093 00000000 	 .ascii "\000\000\000\000\000\000\000\000\000\000\000"
 278      00000000 
 278      000000
 279              	 .global Txpdo_TS0x6020
 280 009e 0000     	 .section .data.Txpdo_TS0x6020,"aw",%progbits
 281              	 .align 2
 284              	Txpdo_TS0x6020:
 285 0000 0C00     	 .short 12
 286 0002 0000     	 .short 0
 287 0004 00000000 	 .ascii "\000\000\000\000\000\000\000\000\000\000\000\000\000"
 287      00000000 
 287      00000000 
 287      00
 288 0011 00000000 	 .ascii "\000\000\000\000\000\000\000\000\000\000\000\000\000"
 288      00000000 
 288      00000000 
 288      00
 289 001e 00000000 	 .ascii "\000\000\000\000\000\000"
 289      0000
 290 0024 0000     	 .short 0
 291 0026 00000000 	 .ascii "\000\000\000\000\000\000\000\000\000\000\000\000\000"
 291      00000000 
 291      00000000 
 291      00
 292 0033 00000000 	 .ascii "\000\000\000\000\000\000\000\000\000\000\000\000\000"
 292      00000000 
 292      00000000 
 292      00
 293 0040 00000000 	 .ascii "\000\000\000\000\000\000"
 293      0000
 294 0046 0000     	 .short 0
 295 0048 00000000 	 .ascii "\000\000\000\000\000\000\000\000\000\000\000\000\000"
 295      00000000 
 295      00000000 
 295      00
 296 0055 00000000 	 .ascii "\000\000\000\000\000\000\000\000\000\000\000\000\000"
 296      00000000 
 296      00000000 
 296      00
 297 0062 00000000 	 .ascii "\000\000\000\000\000\000"
 297      0000
 298 0068 0000     	 .short 0
 299 006a 00000000 	 .ascii "\000\000\000\000\000\000\000\000\000\000\000\000\000"
 299      00000000 
 299      00000000 
 299      00
 300 0077 00000000 	 .ascii "\000\000\000\000\000\000\000\000\000\000\000\000\000"
 300      00000000 
 300      00000000 
 300      00
 301 0084 00000000 	 .ascii "\000\000\000\000\000\000"
 301      0000
 302 008a 0000     	 .short 0
 303 008c 00000000 	 .ascii "\000\000\000\000\000\000\000\000\000\000\000\000\000"
 303      00000000 
 303      00000000 
 303      00
 304 0099 00000000 	 .ascii "\000\000\000\000\000\000\000\000\000\000\000\000\000"
 304      00000000 
 304      00000000 
 304      00
 305 00a6 00000000 	 .ascii "\000\000\000\000\000\000"
 305      0000
 306 00ac 0000     	 .short 0
 307 00ae 00000000 	 .ascii "\000\000\000\000\000\000\000\000\000\000\000\000\000"
 307      00000000 
 307      00000000 
 307      00
 308 00bb 00000000 	 .ascii "\000\000\000\000\000\000\000\000\000\000\000\000\000"
 308      00000000 
 308      00000000 
 308      00
 309 00c8 00000000 	 .ascii "\000\000\000\000\000\000"
 309      0000
 310              	 .global Rxpdo160x7000
 311 00ce 0000     	 .section .data.Rxpdo160x7000,"aw",%progbits
 312              	 .align 2
 315              	Rxpdo160x7000:
 316 0000 2000     	 .short 32
 317 0002 0000     	 .short 0
 318 0004 00000000 	 .ascii "\000\000\000\000\000\000\000\000\000\000\000\000\000"
 318      00000000 
 318      00000000 
 318      00
 319 0011 00000000 	 .ascii "\000\000\000\000\000\000\000\000\000\000\000"
 319      00000000 
 319      000000
 320 001c 0000     	 .short 0
 321 001e 00000000 	 .ascii "\000\000\000\000\000\000\000\000\000\000\000\000\000"
 321      00000000 
 321      00000000 
 321      00
 322 002b 00000000 	 .ascii "\000\000\000\000\000\000\000\000\000\000\000"
 322      00000000 
 322      000000
 323 0036 0000     	 .short 0
 324 0038 00000000 	 .ascii "\000\000\000\000\000\000\000\000\000\000\000\000\000"
 324      00000000 
 324      00000000 
 324      00
 325 0045 00000000 	 .ascii "\000\000\000\000\000\000\000\000\000\000\000"
 325      00000000 
 325      000000
 326 0050 0000     	 .short 0
 327 0052 00000000 	 .ascii "\000\000\000\000\000\000\000\000\000\000\000\000\000"
 327      00000000 
 327      00000000 
 327      00
 328 005f 00000000 	 .ascii "\000\000\000\000\000\000\000\000\000\000\000"
 328      00000000 
 328      000000
 329 006a 0000     	 .short 0
 330 006c 00000000 	 .ascii "\000\000\000\000\000\000\000\000\000\000\000\000\000"
 330      00000000 
 330      00000000 
 330      00
 331 0079 00000000 	 .ascii "\000\000\000\000\000\000\000\000\000\000\000"
 331      00000000 
 331      000000
 332 0084 0000     	 .short 0
 333 0086 00000000 	 .ascii "\000\000\000\000\000\000\000\000\000\000\000\000\000"
 333      00000000 
 333      00000000 
 333      00
 334 0093 00000000 	 .ascii "\000\000\000\000\000\000\000\000\000\000\000"
 334      00000000 
 334      000000
 335 009e 0000     	 .short 0
 336 00a0 00000000 	 .ascii "\000\000\000\000\000\000\000\000\000\000\000\000\000"
 336      00000000 
 336      00000000 
 336      00
 337 00ad 00000000 	 .ascii "\000\000\000\000\000\000\000\000\000\000\000"
 337      00000000 
 337      000000
 338 00b8 0000     	 .short 0
 339 00ba 00000000 	 .ascii "\000\000\000\000\000\000\000\000\000\000\000\000\000"
 339      00000000 
 339      00000000 
 339      00
 340 00c7 00000000 	 .ascii "\000\000\000\000\000\000\000\000\000\000\000"
 340      00000000 
 340      000000
 341 00d2 0000     	 .short 0
 342 00d4 00000000 	 .ascii "\000\000\000\000\000\000\000\000\000\000\000\000\000"
 342      00000000 
 342      00000000 
 342      00
 343 00e1 00000000 	 .ascii "\000\000\000\000\000\000\000\000\000\000\000"
 343      00000000 
 343      000000
 344 00ec 0000     	 .short 0
 345 00ee 00000000 	 .ascii "\000\000\000\000\000\000\000\000\000\000\000\000\000"
 345      00000000 
 345      00000000 
 345      00
 346 00fb 00000000 	 .ascii "\000\000\000\000\000\000\000\000\000\000\000"
 346      00000000 
 346      000000
 347 0106 0000     	 .short 0
 348 0108 00000000 	 .ascii "\000\000\000\000\000\000\000\000\000\000\000\000\000"
 348      00000000 
 348      00000000 
 348      00
 349 0115 00000000 	 .ascii "\000\000\000\000\000\000\000\000\000\000\000"
 349      00000000 
 349      000000
 350 0120 0000     	 .short 0
 351 0122 00000000 	 .ascii "\000\000\000\000\000\000\000\000\000\000\000\000\000"
 351      00000000 
 351      00000000 
 351      00
 352 012f 00000000 	 .ascii "\000\000\000\000\000\000\000\000\000\000\000"
 352      00000000 
 352      000000
 353 013a 0000     	 .short 0
 354 013c 00000000 	 .ascii "\000\000\000\000\000\000\000\000\000\000\000\000\000"
 354      00000000 
 354      00000000 
 354      00
 355 0149 00000000 	 .ascii "\000\000\000\000\000\000\000\000\000\000\000"
 355      00000000 
 355      000000
 356 0154 0000     	 .short 0
 357 0156 00000000 	 .ascii "\000\000\000\000\000\000\000\000\000\000\000\000\000"
 357      00000000 
 357      00000000 
 357      00
 358 0163 00000000 	 .ascii "\000\000\000\000\000\000\000\000\000\000\000"
 358      00000000 
 358      000000
 359 016e 0000     	 .short 0
 360 0170 00000000 	 .ascii "\000\000\000\000\000\000\000\000\000\000\000\000\000"
 360      00000000 
 360      00000000 
 360      00
 361 017d 00000000 	 .ascii "\000\000\000\000\000\000\000\000\000\000\000"
 361      00000000 
 361      000000
 362 0188 0000     	 .short 0
 363 018a 00000000 	 .ascii "\000\000\000\000\000\000\000\000\000\000\000\000\000"
 363      00000000 
 363      00000000 
 363      00
 364 0197 00000000 	 .ascii "\000\000\000\000\000\000\000\000\000\000\000"
 364      00000000 
 364      000000
 365              	 .global Rxpdo60x7010
 366 01a2 0000     	 .section .data.Rxpdo60x7010,"aw",%progbits
 367              	 .align 2
 370              	Rxpdo60x7010:
 371 0000 0C00     	 .short 12
 372 0002 0000     	 .short 0
 373 0004 00000000 	 .ascii "\000\000\000\000\000\000\000\000\000\000\000\000\000"
 373      00000000 
 373      00000000 
 373      00
 374 0011 00000000 	 .ascii "\000\000\000\000\000\000\000\000\000\000\000"
 374      00000000 
 374      000000
 375 001c 0000     	 .short 0
 376 001e 00000000 	 .ascii "\000\000\000\000\000\000\000\000\000\000\000\000\000"
 376      00000000 
 376      00000000 
 376      00
 377 002b 00000000 	 .ascii "\000\000\000\000\000\000\000\000\000\000\000"
 377      00000000 
 377      000000
 378 0036 0000     	 .short 0
 379 0038 00000000 	 .ascii "\000\000\000\000\000\000\000\000\000\000\000\000\000"
 379      00000000 
 379      00000000 
 379      00
 380 0045 00000000 	 .ascii "\000\000\000\000\000\000\000\000\000\000\000"
 380      00000000 
 380      000000
 381 0050 0000     	 .short 0
 382 0052 00000000 	 .ascii "\000\000\000\000\000\000\000\000\000\000\000\000\000"
 382      00000000 
 382      00000000 
 382      00
 383 005f 00000000 	 .ascii "\000\000\000\000\000\000\000\000\000\000\000"
 383      00000000 
 383      000000
 384 006a 0000     	 .short 0
 385 006c 00000000 	 .ascii "\000\000\000\000\000\000\000\000\000\000\000\000\000"
 385      00000000 
 385      00000000 
 385      00
 386 0079 00000000 	 .ascii "\000\000\000\000\000\000\000\000\000\000\000"
 386      00000000 
 386      000000
 387 0084 0000     	 .short 0
 388 0086 00000000 	 .ascii "\000\000\000\000\000\000\000\000\000\000\000\000\000"
 388      00000000 
 388      00000000 
 388      00
 389 0093 00000000 	 .ascii "\000\000\000\000\000\000\000\000\000\000\000"
 389      00000000 
 389      000000
 390              	 .global Rxpdo6_TS0x7020
 391 009e 0000     	 .section .data.Rxpdo6_TS0x7020,"aw",%progbits
 392              	 .align 2
 395              	Rxpdo6_TS0x7020:
 396 0000 0C00     	 .short 12
 397 0002 0000     	 .short 0
 398 0004 00000000 	 .ascii "\000\000\000\000\000\000\000\000\000\000\000\000\000"
 398      00000000 
 398      00000000 
 398      00
 399 0011 00000000 	 .ascii "\000\000\000\000\000\000\000\000\000\000\000\000\000"
 399      00000000 
 399      00000000 
 399      00
 400 001e 00000000 	 .ascii "\000\000\000\000\000\000"
 400      0000
 401 0024 0000     	 .short 0
 402 0026 00000000 	 .ascii "\000\000\000\000\000\000\000\000\000\000\000\000\000"
 402      00000000 
 402      00000000 
 402      00
 403 0033 00000000 	 .ascii "\000\000\000\000\000\000\000\000\000\000\000\000\000"
 403      00000000 
 403      00000000 
 403      00
 404 0040 00000000 	 .ascii "\000\000\000\000\000\000"
 404      0000
 405 0046 0000     	 .short 0
 406 0048 00000000 	 .ascii "\000\000\000\000\000\000\000\000\000\000\000\000\000"
 406      00000000 
 406      00000000 
 406      00
 407 0055 00000000 	 .ascii "\000\000\000\000\000\000\000\000\000\000\000\000\000"
 407      00000000 
 407      00000000 
 407      00
 408 0062 00000000 	 .ascii "\000\000\000\000\000\000"
 408      0000
 409 0068 0000     	 .short 0
 410 006a 00000000 	 .ascii "\000\000\000\000\000\000\000\000\000\000\000\000\000"
 410      00000000 
 410      00000000 
 410      00
 411 0077 00000000 	 .ascii "\000\000\000\000\000\000\000\000\000\000\000\000\000"
 411      00000000 
 411      00000000 
 411      00
 412 0084 00000000 	 .ascii "\000\000\000\000\000\000"
 412      0000
 413 008a 0000     	 .short 0
 414 008c 00000000 	 .ascii "\000\000\000\000\000\000\000\000\000\000\000\000\000"
 414      00000000 
 414      00000000 
 414      00
 415 0099 00000000 	 .ascii "\000\000\000\000\000\000\000\000\000\000\000\000\000"
 415      00000000 
 415      00000000 
 415      00
 416 00a6 00000000 	 .ascii "\000\000\000\000\000\000"
 416      0000
 417 00ac 0000     	 .short 0
 418 00ae 00000000 	 .ascii "\000\000\000\000\000\000\000\000\000\000\000\000\000"
 418      00000000 
 418      00000000 
 418      00
 419 00bb 00000000 	 .ascii "\000\000\000\000\000\000\000\000\000\000\000\000\000"
 419      00000000 
 419      00000000 
 419      00
 420 00c8 00000000 	 .ascii "\000\000\000\000\000\000"
 420      0000
 421              	 .global DevInfo0x8000
 422 00ce 0000     	 .section .data.DevInfo0x8000,"aw",%progbits
 423              	 .align 2
 426              	DevInfo0x8000:
 427 0000 0D00     	 .short 13
 428 0002 00000000 	 .ascii "\000\000\000\000\000\000\000\000\000\000\000\000\000"
 428      00000000 
 428      00000000 
 428      00
 429 000f 00000000 	 .ascii "\000\000\000\000\000\000\000\000\000\000\000\000\000"
 429      00000000 
 429      00000000 
 429      00
 430 001c 00000000 	 .ascii "\000\000\000\000\000\000"
 430      0000
 431 0022 00000000 	 .ascii "\000\000\000\000\000\000\000\000\000\000\000\000\000"
 431      00000000 
 431      00000000 
 431      00
 432 002f 00000000 	 .ascii "\000\000\000\000\000\000\000\000\000\000\000\000\000"
 432      00000000 
 432      00000000 
 432      00
 433 003c 00000000 	 .ascii "\000\000\000\000\000\000"
 433      0000
 434 0042 00000000 	 .ascii "\000\000\000\000\000\000\000\000\000\000\000\000\000"
 434      00000000 
 434      00000000 
 434      00
 435 004f 00000000 	 .ascii "\000\000\000\000\000\000\000\000\000\000\000\000\000"
 435      00000000 
 435      00000000 
 435      00
 436 005c 00000000 	 .ascii "\000\000\000\000\000\000"
 436      0000
 437 0062 00000000 	 .ascii "\000\000\000\000\000\000\000\000\000\000\000\000\000"
 437      00000000 
 437      00000000 
 437      00
 438 006f 00000000 	 .ascii "\000\000\000\000\000\000\000\000\000\000\000\000\000"
 438      00000000 
 438      00000000 
 438      00
 439 007c 00000000 	 .ascii "\000\000\000\000\000\000"
 439      0000
 440 0082 0000     	 .space 2
 441 0084 10092420 	 .word 539232528
 442 0088 40420F00 	 .word 1000000
 443 008c 404B4C00 	 .word 5000000
 444 0090 404B4C00 	 .word 5000000
 445 0094 00       	 .byte 0
 446 0095 00       	 .byte 0
 447 0096 00       	 .byte 0
 448 0097 00       	 .byte 0
 449 0098 00000000 	 .ascii "\000\000\000\000\000\000"
 449      0000
 450 009e 0000     	 .space 2
 451              	 .global SimulateCANFD0x9000
 452              	 .section .data.SimulateCANFD0x9000,"aw",%progbits
 453              	 .align 2
 456              	SimulateCANFD0x9000:
 457 0000 0800     	 .short 8
 458 0002 0000     	 .short 0
 459 0004 0000     	 .short 0
 460 0006 0000     	 .short 0
 461 0008 00000000 	 .ascii "\000\000\000\000\000\000\000\000\000\000\000\000\000"
 461      00000000 
 461      00000000 
 461      00
 462 0015 00000000 	 .ascii "\000\000\000\000\000\000\000\000\000\000\000\000\000"
 462      00000000 
 462      00000000 
 462      00
 463 0022 00000000 	 .ascii "\000\000\000\000\000\000\000\000\000\000\000\000\000"
 463      00000000 
 463      00000000 
 463      00
 464 002f 00000000 	 .ascii "\000\000\000\000\000\000\000\000\000\000\000\000\000"
 464      00000000 
 464      00000000 
 464      00
 465 003c 00000000 	 .ascii "\000\000\000\000\000\000\000\000\000\000\000\000"
 465      00000000 
 465      00000000 
 466 0048 0000     	 .short 0
 467 004a 0000     	 .short 0
 468 004c 0000     	 .short 0
 469 004e 00000000 	 .ascii "\000\000\000\000\000\000\000\000\000\000\000\000\000"
 469      00000000 
 469      00000000 
 469      00
 470 005b 00000000 	 .ascii "\000\000\000\000\000\000\000\000\000\000\000\000\000"
 470      00000000 
 470      00000000 
 470      00
 471 0068 00000000 	 .ascii "\000\000\000\000\000\000\000\000\000\000\000\000\000"
 471      00000000 
 471      00000000 
 471      00
 472 0075 00000000 	 .ascii "\000\000\000\000\000\000\000\000\000\000\000\000\000"
 472      00000000 
 472      00000000 
 472      00
 473 0082 00000000 	 .ascii "\000\000\000\000\000\000\000\000\000\000\000\000"
 473      00000000 
 473      00000000 
 474              	 .global ParamAction0x9001
 475 008e 0000     	 .section .bss.ParamAction0x9001,"aw",%nobits
 476              	 .align 1
 479              	ParamAction0x9001:
 480 0000 0000     	 .space 2
 481              	 .global ModularDeviceProfile0xF000
 482              	 .section .data.ModularDeviceProfile0xF000,"aw",%progbits
 483              	 .align 2
 486              	ModularDeviceProfile0xF000:
 487 0000 0200     	 .short 2
 488 0002 1000     	 .short 16
 489 0004 0800     	 .short 8
 490 0006 0000     	 .section .text.APPL_AckErrorInd,"ax",%progbits
 491              	 .align 2
 492              	 .global APPL_AckErrorInd
 493              	 .thumb
 494              	 .thumb_func
 496              	APPL_AckErrorInd:
 497              	.LFB175:
 498              	 .file 1 "../SSC/Src/ryhand.c"
   1:../SSC/Src/ryhand.c **** /*
   2:../SSC/Src/ryhand.c **** * This source file is part of the EtherCAT Slave Stack Code licensed by Beckhoff Automation GmbH & 
   3:../SSC/Src/ryhand.c **** * The corresponding license agreement applies. This hint shall not be removed.
   4:../SSC/Src/ryhand.c **** */
   5:../SSC/Src/ryhand.c **** 
   6:../SSC/Src/ryhand.c **** /**
   7:../SSC/Src/ryhand.c **** \addtogroup ryhand ryhand
   8:../SSC/Src/ryhand.c **** @{
   9:../SSC/Src/ryhand.c **** */
  10:../SSC/Src/ryhand.c **** 
  11:../SSC/Src/ryhand.c **** /**
  12:../SSC/Src/ryhand.c **** \file ryhand.c
  13:../SSC/Src/ryhand.c **** \brief Implementation
  14:../SSC/Src/ryhand.c ****  Created with SSC Tool application parser 1.6.4.0
  15:../SSC/Src/ryhand.c **** \version 0.0.0.1
  16:../SSC/Src/ryhand.c **** */
  17:../SSC/Src/ryhand.c **** 
  18:../SSC/Src/ryhand.c **** 
  19:../SSC/Src/ryhand.c **** /*-----------------------------------------------------------------------------------------
  20:../SSC/Src/ryhand.c **** ------
  21:../SSC/Src/ryhand.c **** ------    Includes
  22:../SSC/Src/ryhand.c **** ------
  23:../SSC/Src/ryhand.c **** -----------------------------------------------------------------------------------------*/
  24:../SSC/Src/ryhand.c **** #include "ecat_def.h"
  25:../SSC/Src/ryhand.c **** 
  26:../SSC/Src/ryhand.c **** #include "applInterface.h"
  27:../SSC/Src/ryhand.c **** #include <string.h>
  28:../SSC/Src/ryhand.c **** #include <stdint.h>
  29:../SSC/Src/ryhand.c **** #include "XMC4300.h"  /* 访问 ECAT0 寄存器 */
  30:../SSC/Src/ryhand.c **** 
  31:../SSC/Src/ryhand.c **** #define _RYHAND_ 1
  32:../SSC/Src/ryhand.c **** #include "ryhand.h"
  33:../SSC/Src/ryhand.c **** #undef _RYHAND_
  34:../SSC/Src/ryhand.c **** #define PDO_PAYLOAD_PTR(obj)   ((uint8_t *)&(obj) + sizeof((obj).u16SubIndex0))
  35:../SSC/Src/ryhand.c **** #define PDO_PAYLOAD_LEN(obj)   ((uint16_t)(sizeof(obj) - sizeof((obj).u16SubIndex0)))
  36:../SSC/Src/ryhand.c **** /*--------------------------------------------------------------------------------------
  37:../SSC/Src/ryhand.c **** ------
  38:../SSC/Src/ryhand.c **** ------    local types and defines
  39:../SSC/Src/ryhand.c **** ------
  40:../SSC/Src/ryhand.c **** --------------------------------------------------------------------------------------*/
  41:../SSC/Src/ryhand.c **** 
  42:../SSC/Src/ryhand.c **** /*-----------------------------------------------------------------------------------------
  43:../SSC/Src/ryhand.c **** ------
  44:../SSC/Src/ryhand.c **** ------    local variables and constants
  45:../SSC/Src/ryhand.c **** ------
  46:../SSC/Src/ryhand.c **** -----------------------------------------------------------------------------------------*/
  47:../SSC/Src/ryhand.c **** 
  48:../SSC/Src/ryhand.c **** /*-----------------------------------------------------------------------------------------
  49:../SSC/Src/ryhand.c **** ------
  50:../SSC/Src/ryhand.c **** ------    application specific functions
  51:../SSC/Src/ryhand.c **** ------
  52:../SSC/Src/ryhand.c **** -----------------------------------------------------------------------------------------*/
  53:../SSC/Src/ryhand.c **** 
  54:../SSC/Src/ryhand.c **** /*-----------------------------------------------------------------------------------------
  55:../SSC/Src/ryhand.c **** ------
  56:../SSC/Src/ryhand.c **** ------    generic functions
  57:../SSC/Src/ryhand.c **** ------
  58:../SSC/Src/ryhand.c **** -----------------------------------------------------------------------------------------*/
  59:../SSC/Src/ryhand.c **** 
  60:../SSC/Src/ryhand.c **** /////////////////////////////////////////////////////////////////////////////////////////
  61:../SSC/Src/ryhand.c **** /**
  62:../SSC/Src/ryhand.c ****  \brief    The function is called when an error state was acknowledged by the master
  63:../SSC/Src/ryhand.c **** 
  64:../SSC/Src/ryhand.c **** *////////////////////////////////////////////////////////////////////////////////////////
  65:../SSC/Src/ryhand.c **** 
  66:../SSC/Src/ryhand.c **** void    APPL_AckErrorInd(UINT16 stateTrans)
  67:../SSC/Src/ryhand.c **** {
 499              	 .loc 1 67 0
 500              	 .cfi_startproc
 501              	 
 502              	 
 503              	 
 504 0000 80B4     	 push {r7}
 505              	.LCFI0:
 506              	 .cfi_def_cfa_offset 4
 507              	 .cfi_offset 7,-4
 508 0002 83B0     	 sub sp,sp,#12
 509              	.LCFI1:
 510              	 .cfi_def_cfa_offset 16
 511 0004 00AF     	 add r7,sp,#0
 512              	.LCFI2:
 513              	 .cfi_def_cfa_register 7
 514 0006 0346     	 mov r3,r0
 515 0008 FB80     	 strh r3,[r7,#6]
  68:../SSC/Src/ryhand.c **** 
  69:../SSC/Src/ryhand.c **** }
 516              	 .loc 1 69 0
 517 000a 0C37     	 adds r7,r7,#12
 518              	.LCFI3:
 519              	 .cfi_def_cfa_offset 4
 520 000c BD46     	 mov sp,r7
 521              	.LCFI4:
 522              	 .cfi_def_cfa_register 13
 523              	 
 524 000e 5DF8047B 	 ldr r7,[sp],#4
 525              	.LCFI5:
 526              	 .cfi_restore 7
 527              	 .cfi_def_cfa_offset 0
 528 0012 7047     	 bx lr
 529              	 .cfi_endproc
 530              	.LFE175:
 532              	 .section .text.APPL_StartMailboxHandler,"ax",%progbits
 533              	 .align 2
 534              	 .global APPL_StartMailboxHandler
 535              	 .thumb
 536              	 .thumb_func
 538              	APPL_StartMailboxHandler:
 539              	.LFB176:
  70:../SSC/Src/ryhand.c **** 
  71:../SSC/Src/ryhand.c **** /////////////////////////////////////////////////////////////////////////////////////////
  72:../SSC/Src/ryhand.c **** /**
  73:../SSC/Src/ryhand.c ****  \return    AL Status Code (see ecatslv.h ALSTATUSCODE_....)
  74:../SSC/Src/ryhand.c **** 
  75:../SSC/Src/ryhand.c ****  \brief    The function is called in the state transition from INIT to PREOP when
  76:../SSC/Src/ryhand.c ****              all general settings were checked to start the mailbox handler. This function
  77:../SSC/Src/ryhand.c ****              informs the application about the state transition, the application can refuse
  78:../SSC/Src/ryhand.c ****              the state transition when returning an AL Status error code.
  79:../SSC/Src/ryhand.c ****             The return code NOERROR_INWORK can be used, if the application cannot confirm
  80:../SSC/Src/ryhand.c ****             the state transition immediately, in that case this function will be called cyclically
  81:../SSC/Src/ryhand.c ****             until a value unequal NOERROR_INWORK is returned
  82:../SSC/Src/ryhand.c **** 
  83:../SSC/Src/ryhand.c **** *////////////////////////////////////////////////////////////////////////////////////////
  84:../SSC/Src/ryhand.c **** 
  85:../SSC/Src/ryhand.c **** UINT16 APPL_StartMailboxHandler(void)
  86:../SSC/Src/ryhand.c **** {
 540              	 .loc 1 86 0
 541              	 .cfi_startproc
 542              	 
 543              	 
 544              	 
 545 0000 80B4     	 push {r7}
 546              	.LCFI6:
 547              	 .cfi_def_cfa_offset 4
 548              	 .cfi_offset 7,-4
 549 0002 00AF     	 add r7,sp,#0
 550              	.LCFI7:
 551              	 .cfi_def_cfa_register 7
  87:../SSC/Src/ryhand.c ****     return ALSTATUSCODE_NOERROR;
 552              	 .loc 1 87 0
 553 0004 0023     	 movs r3,#0
  88:../SSC/Src/ryhand.c **** }
 554              	 .loc 1 88 0
 555 0006 1846     	 mov r0,r3
 556 0008 BD46     	 mov sp,r7
 557              	.LCFI8:
 558              	 .cfi_def_cfa_register 13
 559              	 
 560 000a 5DF8047B 	 ldr r7,[sp],#4
 561              	.LCFI9:
 562              	 .cfi_restore 7
 563              	 .cfi_def_cfa_offset 0
 564 000e 7047     	 bx lr
 565              	 .cfi_endproc
 566              	.LFE176:
 568              	 .section .text.APPL_StopMailboxHandler,"ax",%progbits
 569              	 .align 2
 570              	 .global APPL_StopMailboxHandler
 571              	 .thumb
 572              	 .thumb_func
 574              	APPL_StopMailboxHandler:
 575              	.LFB177:
  89:../SSC/Src/ryhand.c **** 
  90:../SSC/Src/ryhand.c **** /////////////////////////////////////////////////////////////////////////////////////////
  91:../SSC/Src/ryhand.c **** /**
  92:../SSC/Src/ryhand.c ****  \return     0, NOERROR_INWORK
  93:../SSC/Src/ryhand.c **** 
  94:../SSC/Src/ryhand.c ****  \brief    The function is called in the state transition from PREEOP to INIT
  95:../SSC/Src/ryhand.c ****              to stop the mailbox handler. This functions informs the application
  96:../SSC/Src/ryhand.c ****              about the state transition, the application cannot refuse
  97:../SSC/Src/ryhand.c ****              the state transition.
  98:../SSC/Src/ryhand.c **** 
  99:../SSC/Src/ryhand.c **** *////////////////////////////////////////////////////////////////////////////////////////
 100:../SSC/Src/ryhand.c **** 
 101:../SSC/Src/ryhand.c **** UINT16 APPL_StopMailboxHandler(void)
 102:../SSC/Src/ryhand.c **** {
 576              	 .loc 1 102 0
 577              	 .cfi_startproc
 578              	 
 579              	 
 580              	 
 581 0000 80B4     	 push {r7}
 582              	.LCFI10:
 583              	 .cfi_def_cfa_offset 4
 584              	 .cfi_offset 7,-4
 585 0002 00AF     	 add r7,sp,#0
 586              	.LCFI11:
 587              	 .cfi_def_cfa_register 7
 103:../SSC/Src/ryhand.c ****     return ALSTATUSCODE_NOERROR;
 588              	 .loc 1 103 0
 589 0004 0023     	 movs r3,#0
 104:../SSC/Src/ryhand.c **** }
 590              	 .loc 1 104 0
 591 0006 1846     	 mov r0,r3
 592 0008 BD46     	 mov sp,r7
 593              	.LCFI12:
 594              	 .cfi_def_cfa_register 13
 595              	 
 596 000a 5DF8047B 	 ldr r7,[sp],#4
 597              	.LCFI13:
 598              	 .cfi_restore 7
 599              	 .cfi_def_cfa_offset 0
 600 000e 7047     	 bx lr
 601              	 .cfi_endproc
 602              	.LFE177:
 604              	 .section .text.APPL_StartInputHandler,"ax",%progbits
 605              	 .align 2
 606              	 .global APPL_StartInputHandler
 607              	 .thumb
 608              	 .thumb_func
 610              	APPL_StartInputHandler:
 611              	.LFB178:
 105:../SSC/Src/ryhand.c **** 
 106:../SSC/Src/ryhand.c **** /////////////////////////////////////////////////////////////////////////////////////////
 107:../SSC/Src/ryhand.c **** /**
 108:../SSC/Src/ryhand.c ****  \param    pIntMask    pointer to the AL Event Mask which will be written to the AL event Mask
 109:../SSC/Src/ryhand.c ****                        register (0x204) when this function is succeeded. The event mask can be adap
 110:../SSC/Src/ryhand.c ****                        in this function
 111:../SSC/Src/ryhand.c ****  \return    AL Status Code (see ecatslv.h ALSTATUSCODE_....)
 112:../SSC/Src/ryhand.c **** 
 113:../SSC/Src/ryhand.c ****  \brief    The function is called in the state transition from PREOP to SAFEOP when
 114:../SSC/Src/ryhand.c ****            all general settings were checked to start the input handler. This function
 115:../SSC/Src/ryhand.c ****            informs the application about the state transition, the application can refuse
 116:../SSC/Src/ryhand.c ****            the state transition when returning an AL Status error code.
 117:../SSC/Src/ryhand.c ****            The return code NOERROR_INWORK can be used, if the application cannot confirm
 118:../SSC/Src/ryhand.c ****            the state transition immediately, in that case the application need to be complete 
 119:../SSC/Src/ryhand.c ****            the transition by calling ECAT_StateChange.
 120:../SSC/Src/ryhand.c **** *////////////////////////////////////////////////////////////////////////////////////////
 121:../SSC/Src/ryhand.c **** 
 122:../SSC/Src/ryhand.c **** UINT16 APPL_StartInputHandler(UINT16 *pIntMask)
 123:../SSC/Src/ryhand.c **** {
 612              	 .loc 1 123 0
 613              	 .cfi_startproc
 614              	 
 615              	 
 616              	 
 617 0000 80B4     	 push {r7}
 618              	.LCFI14:
 619              	 .cfi_def_cfa_offset 4
 620              	 .cfi_offset 7,-4
 621 0002 83B0     	 sub sp,sp,#12
 622              	.LCFI15:
 623              	 .cfi_def_cfa_offset 16
 624 0004 00AF     	 add r7,sp,#0
 625              	.LCFI16:
 626              	 .cfi_def_cfa_register 7
 627 0006 7860     	 str r0,[r7,#4]
 124:../SSC/Src/ryhand.c ****     return ALSTATUSCODE_NOERROR;
 628              	 .loc 1 124 0
 629 0008 0023     	 movs r3,#0
 125:../SSC/Src/ryhand.c **** }
 630              	 .loc 1 125 0
 631 000a 1846     	 mov r0,r3
 632 000c 0C37     	 adds r7,r7,#12
 633              	.LCFI17:
 634              	 .cfi_def_cfa_offset 4
 635 000e BD46     	 mov sp,r7
 636              	.LCFI18:
 637              	 .cfi_def_cfa_register 13
 638              	 
 639 0010 5DF8047B 	 ldr r7,[sp],#4
 640              	.LCFI19:
 641              	 .cfi_restore 7
 642              	 .cfi_def_cfa_offset 0
 643 0014 7047     	 bx lr
 644              	 .cfi_endproc
 645              	.LFE178:
 647 0016 00BF     	 .section .text.APPL_StopInputHandler,"ax",%progbits
 648              	 .align 2
 649              	 .global APPL_StopInputHandler
 650              	 .thumb
 651              	 .thumb_func
 653              	APPL_StopInputHandler:
 654              	.LFB179:
 126:../SSC/Src/ryhand.c **** 
 127:../SSC/Src/ryhand.c **** /////////////////////////////////////////////////////////////////////////////////////////
 128:../SSC/Src/ryhand.c **** /**
 129:../SSC/Src/ryhand.c ****  \return     0, NOERROR_INWORK
 130:../SSC/Src/ryhand.c **** 
 131:../SSC/Src/ryhand.c ****  \brief    The function is called in the state transition from SAFEOP to PREEOP
 132:../SSC/Src/ryhand.c ****              to stop the input handler. This functions informs the application
 133:../SSC/Src/ryhand.c ****              about the state transition, the application cannot refuse
 134:../SSC/Src/ryhand.c ****              the state transition.
 135:../SSC/Src/ryhand.c **** 
 136:../SSC/Src/ryhand.c **** *////////////////////////////////////////////////////////////////////////////////////////
 137:../SSC/Src/ryhand.c **** 
 138:../SSC/Src/ryhand.c **** UINT16 APPL_StopInputHandler(void)
 139:../SSC/Src/ryhand.c **** {
 655              	 .loc 1 139 0
 656              	 .cfi_startproc
 657              	 
 658              	 
 659              	 
 660 0000 80B4     	 push {r7}
 661              	.LCFI20:
 662              	 .cfi_def_cfa_offset 4
 663              	 .cfi_offset 7,-4
 664 0002 00AF     	 add r7,sp,#0
 665              	.LCFI21:
 666              	 .cfi_def_cfa_register 7
 140:../SSC/Src/ryhand.c ****     return ALSTATUSCODE_NOERROR;
 667              	 .loc 1 140 0
 668 0004 0023     	 movs r3,#0
 141:../SSC/Src/ryhand.c **** }
 669              	 .loc 1 141 0
 670 0006 1846     	 mov r0,r3
 671 0008 BD46     	 mov sp,r7
 672              	.LCFI22:
 673              	 .cfi_def_cfa_register 13
 674              	 
 675 000a 5DF8047B 	 ldr r7,[sp],#4
 676              	.LCFI23:
 677              	 .cfi_restore 7
 678              	 .cfi_def_cfa_offset 0
 679 000e 7047     	 bx lr
 680              	 .cfi_endproc
 681              	.LFE179:
 683              	 .section .text.APPL_StartOutputHandler,"ax",%progbits
 684              	 .align 2
 685              	 .global APPL_StartOutputHandler
 686              	 .thumb
 687              	 .thumb_func
 689              	APPL_StartOutputHandler:
 690              	.LFB180:
 142:../SSC/Src/ryhand.c **** 
 143:../SSC/Src/ryhand.c **** /////////////////////////////////////////////////////////////////////////////////////////
 144:../SSC/Src/ryhand.c **** /**
 145:../SSC/Src/ryhand.c ****  \return    AL Status Code (see ecatslv.h ALSTATUSCODE_....)
 146:../SSC/Src/ryhand.c **** 
 147:../SSC/Src/ryhand.c ****  \brief    The function is called in the state transition from SAFEOP to OP when
 148:../SSC/Src/ryhand.c ****              all general settings were checked to start the output handler. This function
 149:../SSC/Src/ryhand.c ****              informs the application about the state transition, the application can refuse
 150:../SSC/Src/ryhand.c ****              the state transition when returning an AL Status error code.
 151:../SSC/Src/ryhand.c ****            The return code NOERROR_INWORK can be used, if the application cannot confirm
 152:../SSC/Src/ryhand.c ****            the state transition immediately, in that case the application need to be complete 
 153:../SSC/Src/ryhand.c ****            the transition by calling ECAT_StateChange.
 154:../SSC/Src/ryhand.c **** *////////////////////////////////////////////////////////////////////////////////////////
 155:../SSC/Src/ryhand.c **** 
 156:../SSC/Src/ryhand.c **** UINT16 APPL_StartOutputHandler(void)
 157:../SSC/Src/ryhand.c **** {
 691              	 .loc 1 157 0
 692              	 .cfi_startproc
 693              	 
 694              	 
 695              	 
 696 0000 80B4     	 push {r7}
 697              	.LCFI24:
 698              	 .cfi_def_cfa_offset 4
 699              	 .cfi_offset 7,-4
 700 0002 00AF     	 add r7,sp,#0
 701              	.LCFI25:
 702              	 .cfi_def_cfa_register 7
 158:../SSC/Src/ryhand.c ****     return ALSTATUSCODE_NOERROR;
 703              	 .loc 1 158 0
 704 0004 0023     	 movs r3,#0
 159:../SSC/Src/ryhand.c **** }
 705              	 .loc 1 159 0
 706 0006 1846     	 mov r0,r3
 707 0008 BD46     	 mov sp,r7
 708              	.LCFI26:
 709              	 .cfi_def_cfa_register 13
 710              	 
 711 000a 5DF8047B 	 ldr r7,[sp],#4
 712              	.LCFI27:
 713              	 .cfi_restore 7
 714              	 .cfi_def_cfa_offset 0
 715 000e 7047     	 bx lr
 716              	 .cfi_endproc
 717              	.LFE180:
 719              	 .section .text.APPL_StopOutputHandler,"ax",%progbits
 720              	 .align 2
 721              	 .global APPL_StopOutputHandler
 722              	 .thumb
 723              	 .thumb_func
 725              	APPL_StopOutputHandler:
 726              	.LFB181:
 160:../SSC/Src/ryhand.c **** 
 161:../SSC/Src/ryhand.c **** /////////////////////////////////////////////////////////////////////////////////////////
 162:../SSC/Src/ryhand.c **** /**
 163:../SSC/Src/ryhand.c ****  \return     0, NOERROR_INWORK
 164:../SSC/Src/ryhand.c **** 
 165:../SSC/Src/ryhand.c ****  \brief    The function is called in the state transition from OP to SAFEOP
 166:../SSC/Src/ryhand.c ****              to stop the output handler. This functions informs the application
 167:../SSC/Src/ryhand.c ****              about the state transition, the application cannot refuse
 168:../SSC/Src/ryhand.c ****              the state transition.
 169:../SSC/Src/ryhand.c **** 
 170:../SSC/Src/ryhand.c **** *////////////////////////////////////////////////////////////////////////////////////////
 171:../SSC/Src/ryhand.c **** 
 172:../SSC/Src/ryhand.c **** UINT16 APPL_StopOutputHandler(void)
 173:../SSC/Src/ryhand.c **** {
 727              	 .loc 1 173 0
 728              	 .cfi_startproc
 729              	 
 730              	 
 731              	 
 732 0000 80B4     	 push {r7}
 733              	.LCFI28:
 734              	 .cfi_def_cfa_offset 4
 735              	 .cfi_offset 7,-4
 736 0002 00AF     	 add r7,sp,#0
 737              	.LCFI29:
 738              	 .cfi_def_cfa_register 7
 174:../SSC/Src/ryhand.c ****     return ALSTATUSCODE_NOERROR;
 739              	 .loc 1 174 0
 740 0004 0023     	 movs r3,#0
 175:../SSC/Src/ryhand.c **** }
 741              	 .loc 1 175 0
 742 0006 1846     	 mov r0,r3
 743 0008 BD46     	 mov sp,r7
 744              	.LCFI30:
 745              	 .cfi_def_cfa_register 13
 746              	 
 747 000a 5DF8047B 	 ldr r7,[sp],#4
 748              	.LCFI31:
 749              	 .cfi_restore 7
 750              	 .cfi_def_cfa_offset 0
 751 000e 7047     	 bx lr
 752              	 .cfi_endproc
 753              	.LFE181:
 755              	 .section .text.APPL_GenerateMapping,"ax",%progbits
 756              	 .align 2
 757              	 .global APPL_GenerateMapping
 758              	 .thumb
 759              	 .thumb_func
 761              	APPL_GenerateMapping:
 762              	.LFB182:
 176:../SSC/Src/ryhand.c **** 
 177:../SSC/Src/ryhand.c **** /////////////////////////////////////////////////////////////////////////////////////////
 178:../SSC/Src/ryhand.c **** /**
 179:../SSC/Src/ryhand.c **** \return     0(ALSTATUSCODE_NOERROR), NOERROR_INWORK
 180:../SSC/Src/ryhand.c **** \param      pInputSize  pointer to save the input process data length
 181:../SSC/Src/ryhand.c **** \param      pOutputSize  pointer to save the output process data length
 182:../SSC/Src/ryhand.c **** 
 183:../SSC/Src/ryhand.c **** \brief    This function calculates the process data sizes from the actual SM-PDO-Assign
 184:../SSC/Src/ryhand.c ****             and PDO mapping
 185:../SSC/Src/ryhand.c **** *////////////////////////////////////////////////////////////////////////////////////////
 186:../SSC/Src/ryhand.c **** UINT16 APPL_GenerateMapping(UINT16 *pInputSize,UINT16 *pOutputSize)
 187:../SSC/Src/ryhand.c **** {
 763              	 .loc 1 187 0
 764              	 .cfi_startproc
 765              	 
 766              	 
 767 0000 90B5     	 push {r4,r7,lr}
 768              	.LCFI32:
 769              	 .cfi_def_cfa_offset 12
 770              	 .cfi_offset 4,-12
 771              	 .cfi_offset 7,-8
 772              	 .cfi_offset 14,-4
 773 0002 89B0     	 sub sp,sp,#36
 774              	.LCFI33:
 775              	 .cfi_def_cfa_offset 48
 776 0004 00AF     	 add r7,sp,#0
 777              	.LCFI34:
 778              	 .cfi_def_cfa_register 7
 779 0006 7860     	 str r0,[r7,#4]
 780 0008 3960     	 str r1,[r7]
 188:../SSC/Src/ryhand.c ****     UINT16 result = ALSTATUSCODE_NOERROR;
 781              	 .loc 1 188 0
 782 000a 0023     	 movs r3,#0
 783 000c FB83     	 strh r3,[r7,#30]
 189:../SSC/Src/ryhand.c ****     UINT16 InputSize = 0;
 784              	 .loc 1 189 0
 785 000e 0023     	 movs r3,#0
 786 0010 BB83     	 strh r3,[r7,#28]
 190:../SSC/Src/ryhand.c ****     UINT16 OutputSize = 0;
 787              	 .loc 1 190 0
 788 0012 0023     	 movs r3,#0
 789 0014 7B83     	 strh r3,[r7,#26]
 191:../SSC/Src/ryhand.c **** 
 192:../SSC/Src/ryhand.c **** #if COE_SUPPORTED
 193:../SSC/Src/ryhand.c ****     UINT16 PDOAssignEntryCnt = 0;
 790              	 .loc 1 193 0
 791 0016 0023     	 movs r3,#0
 792 0018 3B83     	 strh r3,[r7,#24]
 194:../SSC/Src/ryhand.c ****     OBJCONST TOBJECT OBJMEM * pPDO = NULL;
 793              	 .loc 1 194 0
 794 001a 0023     	 movs r3,#0
 795 001c 3B61     	 str r3,[r7,#16]
 195:../SSC/Src/ryhand.c ****     UINT16 PDOSubindex0 = 0;
 796              	 .loc 1 195 0
 797 001e 0023     	 movs r3,#0
 798 0020 FB81     	 strh r3,[r7,#14]
 196:../SSC/Src/ryhand.c ****     UINT32 *pPDOEntry = NULL;
 799              	 .loc 1 196 0
 800 0022 0023     	 movs r3,#0
 801 0024 BB60     	 str r3,[r7,#8]
 197:../SSC/Src/ryhand.c ****     UINT16 PDOEntryCnt = 0;
 802              	 .loc 1 197 0
 803 0026 0023     	 movs r3,#0
 804 0028 FB82     	 strh r3,[r7,#22]
 198:../SSC/Src/ryhand.c ****    
 199:../SSC/Src/ryhand.c **** #if MAX_PD_OUTPUT_SIZE > 0
 200:../SSC/Src/ryhand.c ****     /*Scan object 0x1C12 RXPDO assign*/
 201:../SSC/Src/ryhand.c ****     for(PDOAssignEntryCnt = 0; PDOAssignEntryCnt < sRxPDOassign.u16SubIndex0; PDOAssignEntryCnt++)
 805              	 .loc 1 201 0
 806 002a 0023     	 movs r3,#0
 807 002c 3B83     	 strh r3,[r7,#24]
 808 002e 3AE0     	 b .L15
 809              	.L21:
 202:../SSC/Src/ryhand.c ****     {
 203:../SSC/Src/ryhand.c ****         pPDO = OBJ_GetObjectHandle(sRxPDOassign.aEntries[PDOAssignEntryCnt]);
 810              	 .loc 1 203 0
 811 0030 3B8B     	 ldrh r3,[r7,#24]
 812 0032 4C4A     	 ldr r2,.L32
 813 0034 5B00     	 lsls r3,r3,#1
 814 0036 1344     	 add r3,r3,r2
 815 0038 5B88     	 ldrh r3,[r3,#2]
 816 003a 1846     	 mov r0,r3
 817 003c FFF7FEFF 	 bl OBJ_GetObjectHandle
 818 0040 3861     	 str r0,[r7,#16]
 204:../SSC/Src/ryhand.c ****         if(pPDO != NULL)
 819              	 .loc 1 204 0
 820 0042 3B69     	 ldr r3,[r7,#16]
 821 0044 002B     	 cmp r3,#0
 822 0046 26D0     	 beq .L16
 205:../SSC/Src/ryhand.c ****         {
 206:../SSC/Src/ryhand.c ****             PDOSubindex0 = *((UINT16 *)pPDO->pVarPtr);
 823              	 .loc 1 206 0
 824 0048 3B69     	 ldr r3,[r7,#16]
 825 004a 9B69     	 ldr r3,[r3,#24]
 826 004c 1B88     	 ldrh r3,[r3]
 827 004e FB81     	 strh r3,[r7,#14]
 207:../SSC/Src/ryhand.c ****             for(PDOEntryCnt = 0; PDOEntryCnt < PDOSubindex0; PDOEntryCnt++)
 828              	 .loc 1 207 0
 829 0050 0023     	 movs r3,#0
 830 0052 FB82     	 strh r3,[r7,#22]
 831 0054 1AE0     	 b .L17
 832              	.L18:
 208:../SSC/Src/ryhand.c ****             {
 209:../SSC/Src/ryhand.c ****                 pPDOEntry = (UINT32 *)(((UINT16 *)pPDO->pVarPtr) + (OBJ_GetEntryOffset((PDOEntryCnt
 833              	 .loc 1 209 0 discriminator 3
 834 0056 3B69     	 ldr r3,[r7,#16]
 835 0058 9C69     	 ldr r4,[r3,#24]
 836 005a FB8A     	 ldrh r3,[r7,#22]
 837 005c DBB2     	 uxtb r3,r3
 838 005e 0133     	 adds r3,r3,#1
 839 0060 DBB2     	 uxtb r3,r3
 840 0062 1846     	 mov r0,r3
 841 0064 3969     	 ldr r1,[r7,#16]
 842 0066 FFF7FEFF 	 bl OBJ_GetEntryOffset
 843 006a 0346     	 mov r3,r0
 844 006c 1B09     	 lsrs r3,r3,#4
 845 006e 9BB2     	 uxth r3,r3
 846 0070 5B00     	 lsls r3,r3,#1
 847 0072 2344     	 add r3,r3,r4
 848 0074 BB60     	 str r3,[r7,#8]
 210:../SSC/Src/ryhand.c ****                 // we increment the expected output size depending on the mapped Entry
 211:../SSC/Src/ryhand.c ****                 OutputSize += (UINT16) ((*pPDOEntry) & 0xFF);
 849              	 .loc 1 211 0 discriminator 3
 850 0076 BB68     	 ldr r3,[r7,#8]
 851 0078 1B68     	 ldr r3,[r3]
 852 007a 9BB2     	 uxth r3,r3
 853 007c DBB2     	 uxtb r3,r3
 854 007e 9AB2     	 uxth r2,r3
 855 0080 7B8B     	 ldrh r3,[r7,#26]
 856 0082 1344     	 add r3,r3,r2
 857 0084 7B83     	 strh r3,[r7,#26]
 207:../SSC/Src/ryhand.c ****             {
 858              	 .loc 1 207 0 discriminator 3
 859 0086 FB8A     	 ldrh r3,[r7,#22]
 860 0088 0133     	 adds r3,r3,#1
 861 008a FB82     	 strh r3,[r7,#22]
 862              	.L17:
 207:../SSC/Src/ryhand.c ****             {
 863              	 .loc 1 207 0 is_stmt 0 discriminator 1
 864 008c FA8A     	 ldrh r2,[r7,#22]
 865 008e FB89     	 ldrh r3,[r7,#14]
 866 0090 9A42     	 cmp r2,r3
 867 0092 E0D3     	 bcc .L18
 868 0094 04E0     	 b .L30
 869              	.L16:
 212:../SSC/Src/ryhand.c ****             }
 213:../SSC/Src/ryhand.c ****         }
 214:../SSC/Src/ryhand.c ****         else
 215:../SSC/Src/ryhand.c ****         {
 216:../SSC/Src/ryhand.c ****             /*assigned PDO was not found in object dictionary. return invalid mapping*/
 217:../SSC/Src/ryhand.c ****             OutputSize = 0;
 870              	 .loc 1 217 0 is_stmt 1
 871 0096 0023     	 movs r3,#0
 872 0098 7B83     	 strh r3,[r7,#26]
 218:../SSC/Src/ryhand.c ****             result = ALSTATUSCODE_INVALIDOUTPUTMAPPING;
 873              	 .loc 1 218 0
 874 009a 2523     	 movs r3,#37
 875 009c FB83     	 strh r3,[r7,#30]
 219:../SSC/Src/ryhand.c ****             break;
 876              	 .loc 1 219 0
 877 009e 07E0     	 b .L20
 878              	.L30:
 201:../SSC/Src/ryhand.c ****     {
 879              	 .loc 1 201 0 discriminator 2
 880 00a0 3B8B     	 ldrh r3,[r7,#24]
 881 00a2 0133     	 adds r3,r3,#1
 882 00a4 3B83     	 strh r3,[r7,#24]
 883              	.L15:
 201:../SSC/Src/ryhand.c ****     {
 884              	 .loc 1 201 0 is_stmt 0 discriminator 1
 885 00a6 2F4B     	 ldr r3,.L32
 886 00a8 1B88     	 ldrh r3,[r3]
 887 00aa 3A8B     	 ldrh r2,[r7,#24]
 888 00ac 9A42     	 cmp r2,r3
 889 00ae BFD3     	 bcc .L21
 890              	.L20:
 220:../SSC/Src/ryhand.c ****         }
 221:../SSC/Src/ryhand.c ****     }
 222:../SSC/Src/ryhand.c **** 
 223:../SSC/Src/ryhand.c ****     OutputSize = (OutputSize + 7) >> 3;
 891              	 .loc 1 223 0 is_stmt 1
 892 00b0 7B8B     	 ldrh r3,[r7,#26]
 893 00b2 0733     	 adds r3,r3,#7
 894 00b4 DB10     	 asrs r3,r3,#3
 895 00b6 7B83     	 strh r3,[r7,#26]
 224:../SSC/Src/ryhand.c **** #endif
 225:../SSC/Src/ryhand.c **** 
 226:../SSC/Src/ryhand.c **** #if MAX_PD_INPUT_SIZE > 0
 227:../SSC/Src/ryhand.c ****     if(result == 0)
 896              	 .loc 1 227 0
 897 00b8 FB8B     	 ldrh r3,[r7,#30]
 898 00ba 002B     	 cmp r3,#0
 899 00bc 42D1     	 bne .L22
 228:../SSC/Src/ryhand.c ****     {
 229:../SSC/Src/ryhand.c ****         /*Scan Object 0x1C13 TXPDO assign*/
 230:../SSC/Src/ryhand.c ****         for(PDOAssignEntryCnt = 0; PDOAssignEntryCnt < sTxPDOassign.u16SubIndex0; PDOAssignEntryCnt
 900              	 .loc 1 230 0
 901 00be 0023     	 movs r3,#0
 902 00c0 3B83     	 strh r3,[r7,#24]
 903 00c2 3AE0     	 b .L23
 904              	.L28:
 231:../SSC/Src/ryhand.c ****         {
 232:../SSC/Src/ryhand.c ****             pPDO = OBJ_GetObjectHandle(sTxPDOassign.aEntries[PDOAssignEntryCnt]);
 905              	 .loc 1 232 0
 906 00c4 3B8B     	 ldrh r3,[r7,#24]
 907 00c6 284A     	 ldr r2,.L32+4
 908 00c8 5B00     	 lsls r3,r3,#1
 909 00ca 1344     	 add r3,r3,r2
 910 00cc 5B88     	 ldrh r3,[r3,#2]
 911 00ce 1846     	 mov r0,r3
 912 00d0 FFF7FEFF 	 bl OBJ_GetObjectHandle
 913 00d4 3861     	 str r0,[r7,#16]
 233:../SSC/Src/ryhand.c ****             if(pPDO != NULL)
 914              	 .loc 1 233 0
 915 00d6 3B69     	 ldr r3,[r7,#16]
 916 00d8 002B     	 cmp r3,#0
 917 00da 26D0     	 beq .L24
 234:../SSC/Src/ryhand.c ****             {
 235:../SSC/Src/ryhand.c ****                 PDOSubindex0 = *((UINT16 *)pPDO->pVarPtr);
 918              	 .loc 1 235 0
 919 00dc 3B69     	 ldr r3,[r7,#16]
 920 00de 9B69     	 ldr r3,[r3,#24]
 921 00e0 1B88     	 ldrh r3,[r3]
 922 00e2 FB81     	 strh r3,[r7,#14]
 236:../SSC/Src/ryhand.c ****                 for(PDOEntryCnt = 0; PDOEntryCnt < PDOSubindex0; PDOEntryCnt++)
 923              	 .loc 1 236 0
 924 00e4 0023     	 movs r3,#0
 925 00e6 FB82     	 strh r3,[r7,#22]
 926 00e8 1AE0     	 b .L25
 927              	.L26:
 237:../SSC/Src/ryhand.c ****                 {
 238:../SSC/Src/ryhand.c ****                     pPDOEntry = (UINT32 *)(((UINT16 *)pPDO->pVarPtr) + (OBJ_GetEntryOffset((PDOEntr
 928              	 .loc 1 238 0 discriminator 3
 929 00ea 3B69     	 ldr r3,[r7,#16]
 930 00ec 9C69     	 ldr r4,[r3,#24]
 931 00ee FB8A     	 ldrh r3,[r7,#22]
 932 00f0 DBB2     	 uxtb r3,r3
 933 00f2 0133     	 adds r3,r3,#1
 934 00f4 DBB2     	 uxtb r3,r3
 935 00f6 1846     	 mov r0,r3
 936 00f8 3969     	 ldr r1,[r7,#16]
 937 00fa FFF7FEFF 	 bl OBJ_GetEntryOffset
 938 00fe 0346     	 mov r3,r0
 939 0100 1B09     	 lsrs r3,r3,#4
 940 0102 9BB2     	 uxth r3,r3
 941 0104 5B00     	 lsls r3,r3,#1
 942 0106 2344     	 add r3,r3,r4
 943 0108 BB60     	 str r3,[r7,#8]
 239:../SSC/Src/ryhand.c ****                     // we increment the expected output size depending on the mapped Entry
 240:../SSC/Src/ryhand.c ****                     InputSize += (UINT16) ((*pPDOEntry) & 0xFF);
 944              	 .loc 1 240 0 discriminator 3
 945 010a BB68     	 ldr r3,[r7,#8]
 946 010c 1B68     	 ldr r3,[r3]
 947 010e 9BB2     	 uxth r3,r3
 948 0110 DBB2     	 uxtb r3,r3
 949 0112 9AB2     	 uxth r2,r3
 950 0114 BB8B     	 ldrh r3,[r7,#28]
 951 0116 1344     	 add r3,r3,r2
 952 0118 BB83     	 strh r3,[r7,#28]
 236:../SSC/Src/ryhand.c ****                 {
 953              	 .loc 1 236 0 discriminator 3
 954 011a FB8A     	 ldrh r3,[r7,#22]
 955 011c 0133     	 adds r3,r3,#1
 956 011e FB82     	 strh r3,[r7,#22]
 957              	.L25:
 236:../SSC/Src/ryhand.c ****                 {
 958              	 .loc 1 236 0 is_stmt 0 discriminator 1
 959 0120 FA8A     	 ldrh r2,[r7,#22]
 960 0122 FB89     	 ldrh r3,[r7,#14]
 961 0124 9A42     	 cmp r2,r3
 962 0126 E0D3     	 bcc .L26
 963 0128 04E0     	 b .L31
 964              	.L24:
 241:../SSC/Src/ryhand.c ****                 }
 242:../SSC/Src/ryhand.c ****             }
 243:../SSC/Src/ryhand.c ****             else
 244:../SSC/Src/ryhand.c ****             {
 245:../SSC/Src/ryhand.c ****                 /*assigned PDO was not found in object dictionary. return invalid mapping*/
 246:../SSC/Src/ryhand.c ****                 InputSize = 0;
 965              	 .loc 1 246 0 is_stmt 1
 966 012a 0023     	 movs r3,#0
 967 012c BB83     	 strh r3,[r7,#28]
 247:../SSC/Src/ryhand.c ****                 result = ALSTATUSCODE_INVALIDINPUTMAPPING;
 968              	 .loc 1 247 0
 969 012e 2423     	 movs r3,#36
 970 0130 FB83     	 strh r3,[r7,#30]
 248:../SSC/Src/ryhand.c ****                 break;
 971              	 .loc 1 248 0
 972 0132 07E0     	 b .L22
 973              	.L31:
 230:../SSC/Src/ryhand.c ****         {
 974              	 .loc 1 230 0 discriminator 2
 975 0134 3B8B     	 ldrh r3,[r7,#24]
 976 0136 0133     	 adds r3,r3,#1
 977 0138 3B83     	 strh r3,[r7,#24]
 978              	.L23:
 230:../SSC/Src/ryhand.c ****         {
 979              	 .loc 1 230 0 is_stmt 0 discriminator 1
 980 013a 0B4B     	 ldr r3,.L32+4
 981 013c 1B88     	 ldrh r3,[r3]
 982 013e 3A8B     	 ldrh r2,[r7,#24]
 983 0140 9A42     	 cmp r2,r3
 984 0142 BFD3     	 bcc .L28
 985              	.L22:
 249:../SSC/Src/ryhand.c ****             }
 250:../SSC/Src/ryhand.c ****         }
 251:../SSC/Src/ryhand.c ****     }
 252:../SSC/Src/ryhand.c ****     InputSize = (InputSize + 7) >> 3;
 986              	 .loc 1 252 0 is_stmt 1
 987 0144 BB8B     	 ldrh r3,[r7,#28]
 988 0146 0733     	 adds r3,r3,#7
 989 0148 DB10     	 asrs r3,r3,#3
 990 014a BB83     	 strh r3,[r7,#28]
 253:../SSC/Src/ryhand.c **** #endif
 254:../SSC/Src/ryhand.c **** 
 255:../SSC/Src/ryhand.c **** #else
 256:../SSC/Src/ryhand.c **** #if _WIN32
 257:../SSC/Src/ryhand.c ****    #pragma message ("Warning: Define 'InputSize' and 'OutputSize'.")
 258:../SSC/Src/ryhand.c **** #else
 259:../SSC/Src/ryhand.c ****     #warning "Define 'InputSize' and 'OutputSize'."
 260:../SSC/Src/ryhand.c **** #endif
 261:../SSC/Src/ryhand.c **** #endif
 262:../SSC/Src/ryhand.c **** 
 263:../SSC/Src/ryhand.c ****     *pInputSize = InputSize;
 991              	 .loc 1 263 0
 992 014c 7B68     	 ldr r3,[r7,#4]
 993 014e BA8B     	 ldrh r2,[r7,#28]
 994 0150 1A80     	 strh r2,[r3]
 264:../SSC/Src/ryhand.c ****     *pOutputSize = OutputSize;
 995              	 .loc 1 264 0
 996 0152 3B68     	 ldr r3,[r7]
 997 0154 7A8B     	 ldrh r2,[r7,#26]
 998 0156 1A80     	 strh r2,[r3]
 265:../SSC/Src/ryhand.c ****     return result;
 999              	 .loc 1 265 0
 1000 0158 FB8B     	 ldrh r3,[r7,#30]
 266:../SSC/Src/ryhand.c **** }
 1001              	 .loc 1 266 0
 1002 015a 1846     	 mov r0,r3
 1003 015c 2437     	 adds r7,r7,#36
 1004              	.LCFI35:
 1005              	 .cfi_def_cfa_offset 12
 1006 015e BD46     	 mov sp,r7
 1007              	.LCFI36:
 1008              	 .cfi_def_cfa_register 13
 1009              	 
 1010 0160 90BD     	 pop {r4,r7,pc}
 1011              	.L33:
 1012 0162 00BF     	 .align 2
 1013              	.L32:
 1014 0164 00000000 	 .word sRxPDOassign
 1015 0168 00000000 	 .word sTxPDOassign
 1016              	 .cfi_endproc
 1017              	.LFE182:
 1019              	 .section .text.APPL_InputMapping,"ax",%progbits
 1020              	 .align 2
 1021              	 .global APPL_InputMapping
 1022              	 .thumb
 1023              	 .thumb_func
 1025              	APPL_InputMapping:
 1026              	.LFB183:
 267:../SSC/Src/ryhand.c **** 
 268:../SSC/Src/ryhand.c **** /////////////////////////////////////////////////////////////////////////////////////////
 269:../SSC/Src/ryhand.c **** /**
 270:../SSC/Src/ryhand.c **** \param      pData  pointer to input process data
 271:../SSC/Src/ryhand.c **** 
 272:../SSC/Src/ryhand.c **** \brief      This function will copies the inputs from the local memory to the ESC memory
 273:../SSC/Src/ryhand.c ****             to the hardware
 274:../SSC/Src/ryhand.c **** *////////////////////////////////////////////////////////////////////////////////////////
 275:../SSC/Src/ryhand.c **** void APPL_InputMapping(UINT16 *pData)   /* Slave -> Master (TxPDO) */
 276:../SSC/Src/ryhand.c **** {
 1027              	 .loc 1 276 0
 1028              	 .cfi_startproc
 1029              	 
 1030              	 
 1031 0000 80B5     	 push {r7,lr}
 1032              	.LCFI37:
 1033              	 .cfi_def_cfa_offset 8
 1034              	 .cfi_offset 7,-8
 1035              	 .cfi_offset 14,-4
 1036 0002 84B0     	 sub sp,sp,#16
 1037              	.LCFI38:
 1038              	 .cfi_def_cfa_offset 24
 1039 0004 00AF     	 add r7,sp,#0
 1040              	.LCFI39:
 1041              	 .cfi_def_cfa_register 7
 1042 0006 7860     	 str r0,[r7,#4]
 277:../SSC/Src/ryhand.c ****     uint8_t *p = (uint8_t *)pData;
 1043              	 .loc 1 277 0
 1044 0008 7B68     	 ldr r3,[r7,#4]
 1045 000a FB60     	 str r3,[r7,#12]
 278:../SSC/Src/ryhand.c ****     uint16_t n = sTxPDOassign.u16SubIndex0;          /* 0x1C13:0 */ /* [file:254] */
 1046              	 .loc 1 278 0
 1047 000c 1E4B     	 ldr r3,.L42
 1048 000e 1B88     	 ldrh r3,[r3]
 1049 0010 3B81     	 strh r3,[r7,#8]
 1050              	.LBB2:
 279:../SSC/Src/ryhand.c **** 
 280:../SSC/Src/ryhand.c ****     for (uint16_t i = 0; i < n; i++)
 1051              	 .loc 1 280 0
 1052 0012 0023     	 movs r3,#0
 1053 0014 7B81     	 strh r3,[r7,#10]
 1054 0016 30E0     	 b .L35
 1055              	.L41:
 281:../SSC/Src/ryhand.c ****     {
 282:../SSC/Src/ryhand.c ****         switch (sTxPDOassign.aEntries[i])           /* 0x1C13:1..n */ /* [file:254] */
 1056              	 .loc 1 282 0
 1057 0018 7B89     	 ldrh r3,[r7,#10]
 1058 001a 1B4A     	 ldr r2,.L42
 1059 001c 5B00     	 lsls r3,r3,#1
 1060 001e 1344     	 add r3,r3,r2
 1061 0020 5B88     	 ldrh r3,[r3,#2]
 1062 0022 41F60122 	 movw r2,#6657
 1063 0026 9342     	 cmp r3,r2
 1064 0028 12D0     	 beq .L37
 1065 002a 41F60222 	 movw r2,#6658
 1066 002e 9342     	 cmp r3,r2
 1067 0030 17D0     	 beq .L38
 1068 0032 B3F5D05F 	 cmp r3,#6656
 1069 0036 00D0     	 beq .L39
 283:../SSC/Src/ryhand.c ****         {
 284:../SSC/Src/ryhand.c ****             case 0x1A00: /* <- 0x6000 */
 285:../SSC/Src/ryhand.c ****                 memcpy(p, PDO_PAYLOAD_PTR(Txpdo160x6000), PDO_PAYLOAD_LEN(Txpdo160x6000)); /* [file
 286:../SSC/Src/ryhand.c ****                 p += PDO_PAYLOAD_LEN(Txpdo160x6000);
 287:../SSC/Src/ryhand.c ****                 break;
 288:../SSC/Src/ryhand.c **** 
 289:../SSC/Src/ryhand.c ****             case 0x1A01: /* <- 0x6010 */
 290:../SSC/Src/ryhand.c ****                 memcpy(p, PDO_PAYLOAD_PTR(Txpdo60x6010), PDO_PAYLOAD_LEN(Txpdo60x6010));   /* [file
 291:../SSC/Src/ryhand.c ****                 p += PDO_PAYLOAD_LEN(Txpdo60x6010);
 292:../SSC/Src/ryhand.c ****                 break;
 293:../SSC/Src/ryhand.c **** 
 294:../SSC/Src/ryhand.c ****             case 0x1A02: /* <- 0x6020 */
 295:../SSC/Src/ryhand.c ****                 memcpy(p, PDO_PAYLOAD_PTR(Txpdo_TS0x6020), PDO_PAYLOAD_LEN(Txpdo_TS0x6020)); /* [fi
 296:../SSC/Src/ryhand.c ****                 p += PDO_PAYLOAD_LEN(Txpdo_TS0x6020);
 297:../SSC/Src/ryhand.c ****                 break;
 298:../SSC/Src/ryhand.c **** 
 299:../SSC/Src/ryhand.c ****             default:
 300:../SSC/Src/ryhand.c ****                 break;
 1070              	 .loc 1 300 0
 1071 0038 1CE0     	 b .L40
 1072              	.L39:
 285:../SSC/Src/ryhand.c ****                 p += PDO_PAYLOAD_LEN(Txpdo160x6000);
 1073              	 .loc 1 285 0
 1074 003a F868     	 ldr r0,[r7,#12]
 1075 003c 1349     	 ldr r1,.L42+4
 1076 003e 4FF4D072 	 mov r2,#416
 1077 0042 FFF7FEFF 	 bl memcpy
 286:../SSC/Src/ryhand.c ****                 break;
 1078              	 .loc 1 286 0
 1079 0046 FB68     	 ldr r3,[r7,#12]
 1080 0048 03F5D073 	 add r3,r3,#416
 1081 004c FB60     	 str r3,[r7,#12]
 287:../SSC/Src/ryhand.c **** 
 1082              	 .loc 1 287 0
 1083 004e 11E0     	 b .L40
 1084              	.L37:
 290:../SSC/Src/ryhand.c ****                 p += PDO_PAYLOAD_LEN(Txpdo60x6010);
 1085              	 .loc 1 290 0
 1086 0050 F868     	 ldr r0,[r7,#12]
 1087 0052 0F49     	 ldr r1,.L42+8
 1088 0054 9C22     	 movs r2,#156
 1089 0056 FFF7FEFF 	 bl memcpy
 291:../SSC/Src/ryhand.c ****                 break;
 1090              	 .loc 1 291 0
 1091 005a FB68     	 ldr r3,[r7,#12]
 1092 005c 9C33     	 adds r3,r3,#156
 1093 005e FB60     	 str r3,[r7,#12]
 292:../SSC/Src/ryhand.c **** 
 1094              	 .loc 1 292 0
 1095 0060 08E0     	 b .L40
 1096              	.L38:
 295:../SSC/Src/ryhand.c ****                 p += PDO_PAYLOAD_LEN(Txpdo_TS0x6020);
 1097              	 .loc 1 295 0
 1098 0062 F868     	 ldr r0,[r7,#12]
 1099 0064 0B49     	 ldr r1,.L42+12
 1100 0066 CC22     	 movs r2,#204
 1101 0068 FFF7FEFF 	 bl memcpy
 296:../SSC/Src/ryhand.c ****                 break;
 1102              	 .loc 1 296 0
 1103 006c FB68     	 ldr r3,[r7,#12]
 1104 006e CC33     	 adds r3,r3,#204
 1105 0070 FB60     	 str r3,[r7,#12]
 297:../SSC/Src/ryhand.c **** 
 1106              	 .loc 1 297 0
 1107 0072 00BF     	 nop
 1108              	.L40:
 280:../SSC/Src/ryhand.c ****     {
 1109              	 .loc 1 280 0 discriminator 2
 1110 0074 7B89     	 ldrh r3,[r7,#10]
 1111 0076 0133     	 adds r3,r3,#1
 1112 0078 7B81     	 strh r3,[r7,#10]
 1113              	.L35:
 280:../SSC/Src/ryhand.c ****     {
 1114              	 .loc 1 280 0 is_stmt 0 discriminator 1
 1115 007a 7A89     	 ldrh r2,[r7,#10]
 1116 007c 3B89     	 ldrh r3,[r7,#8]
 1117 007e 9A42     	 cmp r2,r3
 1118 0080 CAD3     	 bcc .L41
 1119              	.LBE2:
 301:../SSC/Src/ryhand.c ****         }
 302:../SSC/Src/ryhand.c ****     }
 303:../SSC/Src/ryhand.c **** }
 1120              	 .loc 1 303 0 is_stmt 1
 1121 0082 1037     	 adds r7,r7,#16
 1122              	.LCFI40:
 1123              	 .cfi_def_cfa_offset 8
 1124 0084 BD46     	 mov sp,r7
 1125              	.LCFI41:
 1126              	 .cfi_def_cfa_register 13
 1127              	 
 1128 0086 80BD     	 pop {r7,pc}
 1129              	.L43:
 1130              	 .align 2
 1131              	.L42:
 1132 0088 00000000 	 .word sTxPDOassign
 1133 008c 02000000 	 .word Txpdo160x6000+2
 1134 0090 02000000 	 .word Txpdo60x6010+2
 1135 0094 02000000 	 .word Txpdo_TS0x6020+2
 1136              	 .cfi_endproc
 1137              	.LFE183:
 1139              	 .section .text.APPL_OutputMapping,"ax",%progbits
 1140              	 .align 2
 1141              	 .global APPL_OutputMapping
 1142              	 .thumb
 1143              	 .thumb_func
 1145              	APPL_OutputMapping:
 1146              	.LFB184:
 304:../SSC/Src/ryhand.c **** 
 305:../SSC/Src/ryhand.c **** /////////////////////////////////////////////////////////////////////////////////////////
 306:../SSC/Src/ryhand.c **** /**
 307:../SSC/Src/ryhand.c **** \param      pData  pointer to output process data
 308:../SSC/Src/ryhand.c **** 
 309:../SSC/Src/ryhand.c **** \brief    This function will copies the outputs from the ESC memory to the local memory
 310:../SSC/Src/ryhand.c ****             to the hardware
 311:../SSC/Src/ryhand.c **** *////////////////////////////////////////////////////////////////////////////////////////
 312:../SSC/Src/ryhand.c **** void APPL_OutputMapping(UINT16 *pData)  /* Master -> Slave (RxPDO) */
 313:../SSC/Src/ryhand.c **** {
 1147              	 .loc 1 313 0
 1148              	 .cfi_startproc
 1149              	 
 1150              	 
 1151 0000 80B5     	 push {r7,lr}
 1152              	.LCFI42:
 1153              	 .cfi_def_cfa_offset 8
 1154              	 .cfi_offset 7,-8
 1155              	 .cfi_offset 14,-4
 1156 0002 84B0     	 sub sp,sp,#16
 1157              	.LCFI43:
 1158              	 .cfi_def_cfa_offset 24
 1159 0004 00AF     	 add r7,sp,#0
 1160              	.LCFI44:
 1161              	 .cfi_def_cfa_register 7
 1162 0006 7860     	 str r0,[r7,#4]
 314:../SSC/Src/ryhand.c ****     uint8_t *p = (uint8_t *)pData;
 1163              	 .loc 1 314 0
 1164 0008 7B68     	 ldr r3,[r7,#4]
 1165 000a FB60     	 str r3,[r7,#12]
 315:../SSC/Src/ryhand.c ****     uint16_t n = sRxPDOassign.u16SubIndex0;          /* 0x1C12:0 */  /* [file:254] */
 1166              	 .loc 1 315 0
 1167 000c 1E4B     	 ldr r3,.L52
 1168 000e 1B88     	 ldrh r3,[r3]
 1169 0010 3B81     	 strh r3,[r7,#8]
 1170              	.LBB3:
 316:../SSC/Src/ryhand.c **** 
 317:../SSC/Src/ryhand.c ****     for (uint16_t i = 0; i < n; i++)
 1171              	 .loc 1 317 0
 1172 0012 0023     	 movs r3,#0
 1173 0014 7B81     	 strh r3,[r7,#10]
 1174 0016 30E0     	 b .L45
 1175              	.L51:
 318:../SSC/Src/ryhand.c ****     {
 319:../SSC/Src/ryhand.c ****         switch (sRxPDOassign.aEntries[i])           /* 0x1C12:1..n */ /* [file:254] */
 1176              	 .loc 1 319 0
 1177 0018 7B89     	 ldrh r3,[r7,#10]
 1178 001a 1B4A     	 ldr r2,.L52
 1179 001c 5B00     	 lsls r3,r3,#1
 1180 001e 1344     	 add r3,r3,r2
 1181 0020 5B88     	 ldrh r3,[r3,#2]
 1182 0022 41F20162 	 movw r2,#5633
 1183 0026 9342     	 cmp r3,r2
 1184 0028 12D0     	 beq .L47
 1185 002a 41F20262 	 movw r2,#5634
 1186 002e 9342     	 cmp r3,r2
 1187 0030 17D0     	 beq .L48
 1188 0032 B3F5B05F 	 cmp r3,#5632
 1189 0036 00D0     	 beq .L49
 320:../SSC/Src/ryhand.c ****         {
 321:../SSC/Src/ryhand.c ****             case 0x1600: /* -> 0x7000 */
 322:../SSC/Src/ryhand.c ****                 memcpy(PDO_PAYLOAD_PTR(Rxpdo160x7000), p, PDO_PAYLOAD_LEN(Rxpdo160x7000)); /* [file
 323:../SSC/Src/ryhand.c ****                 p += PDO_PAYLOAD_LEN(Rxpdo160x7000);
 324:../SSC/Src/ryhand.c ****                 break;
 325:../SSC/Src/ryhand.c **** 
 326:../SSC/Src/ryhand.c ****             case 0x1601: /* -> 0x7010 */
 327:../SSC/Src/ryhand.c ****                 memcpy(PDO_PAYLOAD_PTR(Rxpdo60x7010), p, PDO_PAYLOAD_LEN(Rxpdo60x7010));   /* [file
 328:../SSC/Src/ryhand.c ****                 p += PDO_PAYLOAD_LEN(Rxpdo60x7010);
 329:../SSC/Src/ryhand.c ****                 break;
 330:../SSC/Src/ryhand.c **** 
 331:../SSC/Src/ryhand.c ****             case 0x1602: /* -> 0x7020 */
 332:../SSC/Src/ryhand.c ****                 memcpy(PDO_PAYLOAD_PTR(Rxpdo6_TS0x7020), p, PDO_PAYLOAD_LEN(Rxpdo6_TS0x7020)); /* [
 333:../SSC/Src/ryhand.c ****                 p += PDO_PAYLOAD_LEN(Rxpdo6_TS0x7020);
 334:../SSC/Src/ryhand.c ****                 break;
 335:../SSC/Src/ryhand.c **** 
 336:../SSC/Src/ryhand.c ****             default:
 337:../SSC/Src/ryhand.c ****                 break;
 1190              	 .loc 1 337 0
 1191 0038 1CE0     	 b .L50
 1192              	.L49:
 322:../SSC/Src/ryhand.c ****                 p += PDO_PAYLOAD_LEN(Rxpdo160x7000);
 1193              	 .loc 1 322 0
 1194 003a 1448     	 ldr r0,.L52+4
 1195 003c F968     	 ldr r1,[r7,#12]
 1196 003e 4FF4D072 	 mov r2,#416
 1197 0042 FFF7FEFF 	 bl memcpy
 323:../SSC/Src/ryhand.c ****                 break;
 1198              	 .loc 1 323 0
 1199 0046 FB68     	 ldr r3,[r7,#12]
 1200 0048 03F5D073 	 add r3,r3,#416
 1201 004c FB60     	 str r3,[r7,#12]
 324:../SSC/Src/ryhand.c **** 
 1202              	 .loc 1 324 0
 1203 004e 11E0     	 b .L50
 1204              	.L47:
 327:../SSC/Src/ryhand.c ****                 p += PDO_PAYLOAD_LEN(Rxpdo60x7010);
 1205              	 .loc 1 327 0
 1206 0050 0F48     	 ldr r0,.L52+8
 1207 0052 F968     	 ldr r1,[r7,#12]
 1208 0054 9C22     	 movs r2,#156
 1209 0056 FFF7FEFF 	 bl memcpy
 328:../SSC/Src/ryhand.c ****                 break;
 1210              	 .loc 1 328 0
 1211 005a FB68     	 ldr r3,[r7,#12]
 1212 005c 9C33     	 adds r3,r3,#156
 1213 005e FB60     	 str r3,[r7,#12]
 329:../SSC/Src/ryhand.c **** 
 1214              	 .loc 1 329 0
 1215 0060 08E0     	 b .L50
 1216              	.L48:
 332:../SSC/Src/ryhand.c ****                 p += PDO_PAYLOAD_LEN(Rxpdo6_TS0x7020);
 1217              	 .loc 1 332 0
 1218 0062 0C48     	 ldr r0,.L52+12
 1219 0064 F968     	 ldr r1,[r7,#12]
 1220 0066 CC22     	 movs r2,#204
 1221 0068 FFF7FEFF 	 bl memcpy
 333:../SSC/Src/ryhand.c ****                 break;
 1222              	 .loc 1 333 0
 1223 006c FB68     	 ldr r3,[r7,#12]
 1224 006e CC33     	 adds r3,r3,#204
 1225 0070 FB60     	 str r3,[r7,#12]
 334:../SSC/Src/ryhand.c **** 
 1226              	 .loc 1 334 0
 1227 0072 00BF     	 nop
 1228              	.L50:
 317:../SSC/Src/ryhand.c ****     {
 1229              	 .loc 1 317 0 discriminator 2
 1230 0074 7B89     	 ldrh r3,[r7,#10]
 1231 0076 0133     	 adds r3,r3,#1
 1232 0078 7B81     	 strh r3,[r7,#10]
 1233              	.L45:
 317:../SSC/Src/ryhand.c ****     {
 1234              	 .loc 1 317 0 is_stmt 0 discriminator 1
 1235 007a 7A89     	 ldrh r2,[r7,#10]
 1236 007c 3B89     	 ldrh r3,[r7,#8]
 1237 007e 9A42     	 cmp r2,r3
 1238 0080 CAD3     	 bcc .L51
 1239              	.LBE3:
 338:../SSC/Src/ryhand.c ****         }
 339:../SSC/Src/ryhand.c ****     }
 340:../SSC/Src/ryhand.c **** }
 1240              	 .loc 1 340 0 is_stmt 1
 1241 0082 1037     	 adds r7,r7,#16
 1242              	.LCFI45:
 1243              	 .cfi_def_cfa_offset 8
 1244 0084 BD46     	 mov sp,r7
 1245              	.LCFI46:
 1246              	 .cfi_def_cfa_register 13
 1247              	 
 1248 0086 80BD     	 pop {r7,pc}
 1249              	.L53:
 1250              	 .align 2
 1251              	.L52:
 1252 0088 00000000 	 .word sRxPDOassign
 1253 008c 02000000 	 .word Rxpdo160x7000+2
 1254 0090 02000000 	 .word Rxpdo60x7010+2
 1255 0094 02000000 	 .word Rxpdo6_TS0x7020+2
 1256              	 .cfi_endproc
 1257              	.LFE184:
 1259              	 .section .text.APPL_Application,"ax",%progbits
 1260              	 .align 2
 1261              	 .global APPL_Application
 1262              	 .thumb
 1263              	 .thumb_func
 1265              	APPL_Application:
 1266              	.LFB189:
 341:../SSC/Src/ryhand.c **** 
 342:../SSC/Src/ryhand.c **** /////////////////////////////////////////////////////////////////////////////////////////
 343:../SSC/Src/ryhand.c **** /**
 344:../SSC/Src/ryhand.c **** \brief    This function will called from the synchronisation ISR 
 345:../SSC/Src/ryhand.c ****             or from the mainloop if no synchronisation is supported
 346:../SSC/Src/ryhand.c **** *////////////////////////////////////////////////////////////////////////////////////////
 347:../SSC/Src/ryhand.c **** 
 348:../SSC/Src/ryhand.c **** /* 外部函数声明 */
 349:../SSC/Src/ryhand.c **** extern void Jump_To_App(void);
 350:../SSC/Src/ryhand.c **** extern int Check_Can_Jump_To_App(void);
 351:../SSC/Src/ryhand.c **** 
 352:../SSC/Src/ryhand.c **** /* 包含 E_EEPROM 头文件 */
 353:../SSC/Src/ryhand.c **** #include "Dave/Generated/E_EEPROM_XMC4/e_eeprom_xmc4.h"
 354:../SSC/Src/ryhand.c **** #include "BSP/shared_conf.h"
 355:../SSC/Src/ryhand.c **** 
 356:../SSC/Src/ryhand.c **** 
 357:../SSC/Src/ryhand.c **** void APPL_Application(void)
 358:../SSC/Src/ryhand.c **** {
 1267              	 .loc 1 358 0
 1268              	 .cfi_startproc
 1269              	 
 1270              	 
 1271              	 
 1272 0000 80B4     	 push {r7}
 1273              	.LCFI47:
 1274              	 .cfi_def_cfa_offset 4
 1275              	 .cfi_offset 7,-4
 1276 0002 00AF     	 add r7,sp,#0
 1277              	.LCFI48:
 1278              	 .cfi_def_cfa_register 7
 359:../SSC/Src/ryhand.c ****     /* 
 360:../SSC/Src/ryhand.c ****      * 注意: 不要在此处读取 AL_CONTROL 寄存器！
 361:../SSC/Src/ryhand.c ****      * 这会干扰 SSC 协议栈的状态机，导致状态切换异常。
 362:../SSC/Src/ryhand.c ****      * 
 363:../SSC/Src/ryhand.c ****      * Bootstrap 退出处理已移至 BSP/bootmode.c 的 BL_Stop() 钩子函数。
 364:../SSC/Src/ryhand.c ****      * 请确保将 SSC/Src/bootmode.c 从编译中排除。
 365:../SSC/Src/ryhand.c ****      */
 366:../SSC/Src/ryhand.c **** }
 1279              	 .loc 1 366 0
 1280 0004 BD46     	 mov sp,r7
 1281              	.LCFI49:
 1282              	 .cfi_def_cfa_register 13
 1283              	 
 1284 0006 5DF8047B 	 ldr r7,[sp],#4
 1285              	.LCFI50:
 1286              	 .cfi_restore 7
 1287              	 .cfi_def_cfa_offset 0
 1288 000a 7047     	 bx lr
 1289              	 .cfi_endproc
 1290              	.LFE189:
 1292              	 .section .text.WriteSimulateCANFD,"ax",%progbits
 1293              	 .align 2
 1294              	 .global WriteSimulateCANFD
 1295              	 .thumb
 1296              	 .thumb_func
 1298              	WriteSimulateCANFD:
 1299              	.LFB190:
 367:../SSC/Src/ryhand.c **** 
 368:../SSC/Src/ryhand.c **** #if EXPLICIT_DEVICE_ID
 369:../SSC/Src/ryhand.c **** /////////////////////////////////////////////////////////////////////////////////////////
 370:../SSC/Src/ryhand.c **** /**
 371:../SSC/Src/ryhand.c ****  \return    The Explicit Device ID of the EtherCAT slave
 372:../SSC/Src/ryhand.c **** 
 373:../SSC/Src/ryhand.c ****  \brief     Read the Explicit Device ID (from an external ID switch)
 374:../SSC/Src/ryhand.c **** *////////////////////////////////////////////////////////////////////////////////////////
 375:../SSC/Src/ryhand.c **** UINT16 APPL_GetDeviceID()
 376:../SSC/Src/ryhand.c **** {
 377:../SSC/Src/ryhand.c **** #if _WIN32
 378:../SSC/Src/ryhand.c ****    #pragma message ("Warning: Implement explicit Device ID latching")
 379:../SSC/Src/ryhand.c **** #else
 380:../SSC/Src/ryhand.c ****     #warning "Implement explicit Device ID latching"
 381:../SSC/Src/ryhand.c **** #endif
 382:../SSC/Src/ryhand.c ****     /* Explicit Device 5 is expected by Explicit Device ID conformance tests*/
 383:../SSC/Src/ryhand.c ****     return 0x5;
 384:../SSC/Src/ryhand.c **** }
 385:../SSC/Src/ryhand.c **** #endif
 386:../SSC/Src/ryhand.c **** 
 387:../SSC/Src/ryhand.c **** 
 388:../SSC/Src/ryhand.c **** 
 389:../SSC/Src/ryhand.c **** /////////////////////////////////////////////////////////////////////////////////////////
 390:../SSC/Src/ryhand.c **** /**
 391:../SSC/Src/ryhand.c **** \param     index               index of the requested object.
 392:../SSC/Src/ryhand.c **** \param     subindex            subindex of the requested object.
 393:../SSC/Src/ryhand.c **** \param     objSize             size of the requested object data, calculated with OBJ_GetObjectLeng
 394:../SSC/Src/ryhand.c **** \param     pData               Pointer to the buffer where the data can be copied to
 395:../SSC/Src/ryhand.c **** \param     bCompleteAccess     Indicates if a complete read of all subindices of the
 396:../SSC/Src/ryhand.c ****                                object shall be done or not
 397:../SSC/Src/ryhand.c **** 
 398:../SSC/Src/ryhand.c ****  \return    result of the read operation (0 (success) or an abort code (ABORTIDX_.... defined in
 399:../SSC/Src/ryhand.c ****             sdosrv.h))
 400:../SSC/Src/ryhand.c ****  *////////////////////////////////////////////////////////////////////////////////////////
 401:../SSC/Src/ryhand.c **** UINT8 WriteSimulateCANFD(UINT16 index, UINT8 subindex, UINT32 dataSize, UINT16 MBXMEM * pData, UINT
 1300              	 .loc 1 401 0
 1301              	 .cfi_startproc
 1302              	 
 1303              	 
 1304 0000 80B5     	 push {r7,lr}
 1305              	.LCFI51:
 1306              	 .cfi_def_cfa_offset 8
 1307              	 .cfi_offset 7,-8
 1308              	 .cfi_offset 14,-4
 1309 0002 86B0     	 sub sp,sp,#24
 1310              	.LCFI52:
 1311              	 .cfi_def_cfa_offset 32
 1312 0004 02AF     	 add r7,sp,#8
 1313              	.LCFI53:
 1314              	 .cfi_def_cfa 7,24
 1315 0006 BA60     	 str r2,[r7,#8]
 1316 0008 7B60     	 str r3,[r7,#4]
 1317 000a 0346     	 mov r3,r0
 1318 000c FB81     	 strh r3,[r7,#14]
 1319 000e 0B46     	 mov r3,r1
 1320 0010 7B73     	 strb r3,[r7,#13]
 402:../SSC/Src/ryhand.c **** 	return SDO_WriteCallback(index, subindex, dataSize, pData, bCompleteAccess);
 1321              	 .loc 1 402 0
 1322 0012 F989     	 ldrh r1,[r7,#14]
 1323 0014 7A7B     	 ldrb r2,[r7,#13]
 1324 0016 3B7E     	 ldrb r3,[r7,#24]
 1325 0018 0093     	 str r3,[sp]
 1326 001a 0846     	 mov r0,r1
 1327 001c 1146     	 mov r1,r2
 1328 001e BA68     	 ldr r2,[r7,#8]
 1329 0020 7B68     	 ldr r3,[r7,#4]
 1330 0022 FFF7FEFF 	 bl SDO_WriteCallback
 1331 0026 0346     	 mov r3,r0
 1332 0028 DBB2     	 uxtb r3,r3
 403:../SSC/Src/ryhand.c **** }
 1333              	 .loc 1 403 0
 1334 002a 1846     	 mov r0,r3
 1335 002c 1037     	 adds r7,r7,#16
 1336              	.LCFI54:
 1337              	 .cfi_def_cfa_offset 8
 1338 002e BD46     	 mov sp,r7
 1339              	.LCFI55:
 1340              	 .cfi_def_cfa_register 13
 1341              	 
 1342 0030 80BD     	 pop {r7,pc}
 1343              	 .cfi_endproc
 1344              	.LFE190:
 1346 0032 00BF     	 .text
 1347              	.Letext0:
 1348              	 .file 2 "d:\\infineon\\tools\\dave ide\\4.5.0.202105191637\\eclipse\\arm-gcc-49\\arm-none-eabi\\include\\machine\\_default_types.h"
 1349              	 .file 3 "d:\\infineon\\tools\\dave ide\\4.5.0.202105191637\\eclipse\\arm-gcc-49\\arm-none-eabi\\include\\stdint.h"
 1350              	 .file 4 "../SSC/Src/sdoserv.h"
 1351              	 .file 5 "../SSC/Src/objdef.h"
 1352              	 .file 6 "../SSC/Src/ryhandObjects.h"
 1353              	 .file 7 "D:/Infineon/Tools/DAVE IDE/4.5.0.202105191637/eclipse/workspace/XMC4300-boot/Libraries/CMSIS/Include/cmsis_gcc.h"
 1354              	 .file 8 "D:/Infineon/Tools/DAVE IDE/4.5.0.202105191637/eclipse/workspace/XMC4300-boot/Libraries/CMSIS/Include/core_cm4.h"